


ARM Macro Assembler    Page 1 


    1 00000000         #line   1                "RTE\\Device\\ADuCM355\\startup
_ADuCM355.s"
    1 00000000         ; 
    2 00000000         
    3 00000000         
    4 00000000         
    5 00000000         
    6 00000000         
    7 00000000         
    8 00000000         ;
    9 00000000         
   10 00000000         
   11 00000000         
   12 00000000         
   13 00000000         
   14 00000000         
   15 00000000         
   16 00000000         
   17 00000000         
   18 00000000         
   19 00000000         
   20 00000000         
   21 00000000         
   22 00000000         
   23 00000000         
   24 00000000         
   25 00000000         
   26 00000000         
   27 00000000         
   28 00000000         #line   1                "RTE\\Device\\ADuCM355\\adi_con
fig.h"
    1 00000000         
    2 00000000         
    3 00000000         
    4 00000000         
    5 00000000         
    6 00000000         
    7 00000000         
    8 00000000         
    9 00000000         
   10 00000000         
   11 00000000         
   12 00000000         
   13 00000000         
   14 00000000         
   15 00000000         
   16 00000000         
   17 00000000         
   18 00000000         
   19 00000000         
   20 00000000         #line   29               "RTE\\Device\\ADuCM355\\startup
_ADuCM355.s"
   29 00000000         
   30 00000000         #line   1                "C:\\Users\\trent\\AppData\\Loc
al\\Arm\\Packs\\AnalogDevices\\ADuCM355_DFP\\1.0.3\\ADuCM355\\inc\\ADuCM355_bit
m.h"
    1 00000000         
    2 00000000         
    3 00000000         



ARM Macro Assembler    Page 2 


    4 00000000         
    5 00000000         
    6 00000000         
    7 00000000         
    8 00000000         
    9 00000000         
   10 00000000         
   11 00000000         
   12 00000000         
   13 00000000         
   14 00000000         
   15 00000000         
   16 00000000         
   17 00000000         
   18 00000000         #line   24               "C:\\Users\\trent\\AppData\\Loc
al\\Arm\\Packs\\AnalogDevices\\ADuCM355_DFP\\1.0.3\\ADuCM355\\inc\\ADuCM355_bit
m.h"
   24 00000000         
   25 00000000         
   26 00000000         
   27 00000000         
   28 00000000         
   29 00000000         
   30 00000000         #line   36               "C:\\Users\\trent\\AppData\\Loc
al\\Arm\\Packs\\AnalogDevices\\ADuCM355_DFP\\1.0.3\\ADuCM355\\inc\\ADuCM355_bit
m.h"
   36 00000000         
   37 00000000         
   38 00000000         
   39 00000000         
   40 00000000         
   41 00000000         #line   71               "C:\\Users\\trent\\AppData\\Loc
al\\Arm\\Packs\\AnalogDevices\\ADuCM355_DFP\\1.0.3\\ADuCM355\\inc\\ADuCM355_bit
m.h"
   71 00000000         
   72 00000000         
   73 00000000         
   74 00000000         
   75 00000000         
   76 00000000         
   77 00000000         
   78 00000000         
   79 00000000         
   80 00000000         
   81 00000000         
   82 00000000         
   83 00000000         
   84 00000000         
   85 00000000         
   86 00000000         
   87 00000000         
   88 00000000         
   89 00000000         
   90 00000000         
   91 00000000         
   92 00000000         
   93 00000000         
   94 00000000         
   95 00000000         



ARM Macro Assembler    Page 3 


   96 00000000         
   97 00000000         
   98 00000000         
   99 00000000         
  100 00000000         #line   124              "C:\\Users\\trent\\AppData\\Loc
al\\Arm\\Packs\\AnalogDevices\\ADuCM355_DFP\\1.0.3\\ADuCM355\\inc\\ADuCM355_bit
m.h"
  124 00000000         
  125 00000000         
  126 00000000         
  127 00000000         
  128 00000000         
  129 00000000         
  130 00000000         
  131 00000000         
  132 00000000         
  133 00000000         
  134 00000000         #line   156              "C:\\Users\\trent\\AppData\\Loc
al\\Arm\\Packs\\AnalogDevices\\ADuCM355_DFP\\1.0.3\\ADuCM355\\inc\\ADuCM355_bit
m.h"
  156 00000000         
  157 00000000         
  158 00000000         
  159 00000000         
  160 00000000         
  161 00000000         
  162 00000000         
  163 00000000         
  164 00000000         
  165 00000000         
  166 00000000         
  167 00000000         
  168 00000000         
  169 00000000         
  170 00000000         
  171 00000000         #line   181              "C:\\Users\\trent\\AppData\\Loc
al\\Arm\\Packs\\AnalogDevices\\ADuCM355_DFP\\1.0.3\\ADuCM355\\inc\\ADuCM355_bit
m.h"
  181 00000000         
  182 00000000         
  183 00000000         
  184 00000000         
  185 00000000         #line   195              "C:\\Users\\trent\\AppData\\Loc
al\\Arm\\Packs\\AnalogDevices\\ADuCM355_DFP\\1.0.3\\ADuCM355\\inc\\ADuCM355_bit
m.h"
  195 00000000         
  196 00000000         
  197 00000000         
  198 00000000         
  199 00000000         #line   209              "C:\\Users\\trent\\AppData\\Loc
al\\Arm\\Packs\\AnalogDevices\\ADuCM355_DFP\\1.0.3\\ADuCM355\\inc\\ADuCM355_bit
m.h"
  209 00000000         
  210 00000000         
  211 00000000         
  212 00000000         
  213 00000000         
  214 00000000         
  215 00000000         



ARM Macro Assembler    Page 4 


  216 00000000         
  217 00000000         
  218 00000000         
  219 00000000         
  220 00000000         
  221 00000000         
  222 00000000         
  223 00000000         
  224 00000000         
  225 00000000         
  226 00000000         
  227 00000000         
  228 00000000         #line   248              "C:\\Users\\trent\\AppData\\Loc
al\\Arm\\Packs\\AnalogDevices\\ADuCM355_DFP\\1.0.3\\ADuCM355\\inc\\ADuCM355_bit
m.h"
  248 00000000         
  249 00000000         
  250 00000000         
  251 00000000         
  252 00000000         
  253 00000000         
  254 00000000         
  255 00000000         
  256 00000000         
  257 00000000         
  258 00000000         
  259 00000000         
  260 00000000         
  261 00000000         
  262 00000000         
  263 00000000         
  264 00000000         
  265 00000000         
  266 00000000         
  267 00000000         
  268 00000000         
  269 00000000         
  270 00000000         
  271 00000000         
  272 00000000         
  273 00000000         
  274 00000000         
  275 00000000         
  276 00000000         
  277 00000000         
  278 00000000         #line   288              "C:\\Users\\trent\\AppData\\Loc
al\\Arm\\Packs\\AnalogDevices\\ADuCM355_DFP\\1.0.3\\ADuCM355\\inc\\ADuCM355_bit
m.h"
  288 00000000         
  289 00000000         
  290 00000000         
  291 00000000         
  292 00000000         
  293 00000000         
  294 00000000         
  295 00000000         
  296 00000000         
  297 00000000         
  298 00000000         



ARM Macro Assembler    Page 5 


  299 00000000         
  300 00000000         
  301 00000000         
  302 00000000         
  303 00000000         
  304 00000000         
  305 00000000         
  306 00000000         
  307 00000000         
  308 00000000         
  309 00000000         
  310 00000000         
  311 00000000         #line   343              "C:\\Users\\trent\\AppData\\Loc
al\\Arm\\Packs\\AnalogDevices\\ADuCM355_DFP\\1.0.3\\ADuCM355\\inc\\ADuCM355_bit
m.h"
  343 00000000         
  344 00000000         
  345 00000000         
  346 00000000         
  347 00000000         #line   379              "C:\\Users\\trent\\AppData\\Loc
al\\Arm\\Packs\\AnalogDevices\\ADuCM355_DFP\\1.0.3\\ADuCM355\\inc\\ADuCM355_bit
m.h"
  379 00000000         
  380 00000000         
  381 00000000         
  382 00000000         
  383 00000000         
  384 00000000         
  385 00000000         
  386 00000000         #line   410              "C:\\Users\\trent\\AppData\\Loc
al\\Arm\\Packs\\AnalogDevices\\ADuCM355_DFP\\1.0.3\\ADuCM355\\inc\\ADuCM355_bit
m.h"
  410 00000000         
  411 00000000         
  412 00000000         
  413 00000000         
  414 00000000         #line   442              "C:\\Users\\trent\\AppData\\Loc
al\\Arm\\Packs\\AnalogDevices\\ADuCM355_DFP\\1.0.3\\ADuCM355\\inc\\ADuCM355_bit
m.h"
  442 00000000         
  443 00000000         
  444 00000000         
  445 00000000         
  446 00000000         #line   460              "C:\\Users\\trent\\AppData\\Loc
al\\Arm\\Packs\\AnalogDevices\\ADuCM355_DFP\\1.0.3\\ADuCM355\\inc\\ADuCM355_bit
m.h"
  460 00000000         
  461 00000000         
  462 00000000         
  463 00000000         
  464 00000000         
  465 00000000         
  466 00000000         
  467 00000000         
  468 00000000         
  469 00000000         
  470 00000000         
  471 00000000         
  472 00000000         



ARM Macro Assembler    Page 6 


  473 00000000         
  474 00000000         
  475 00000000         
  476 00000000         
  477 00000000         
  478 00000000         
  479 00000000         
  480 00000000         
  481 00000000         
  482 00000000         
  483 00000000         
  484 00000000         
  485 00000000         
  486 00000000         
  487 00000000         
  488 00000000         #line   496              "C:\\Users\\trent\\AppData\\Loc
al\\Arm\\Packs\\AnalogDevices\\ADuCM355_DFP\\1.0.3\\ADuCM355\\inc\\ADuCM355_bit
m.h"
  496 00000000         
  497 00000000         
  498 00000000         
  499 00000000         
  500 00000000         
  501 00000000         
  502 00000000         
  503 00000000         
  504 00000000         
  505 00000000         
  506 00000000         #line   518              "C:\\Users\\trent\\AppData\\Loc
al\\Arm\\Packs\\AnalogDevices\\ADuCM355_DFP\\1.0.3\\ADuCM355\\inc\\ADuCM355_bit
m.h"
  518 00000000         
  519 00000000         
  520 00000000         
  521 00000000         
  522 00000000         #line   546              "C:\\Users\\trent\\AppData\\Loc
al\\Arm\\Packs\\AnalogDevices\\ADuCM355_DFP\\1.0.3\\ADuCM355\\inc\\ADuCM355_bit
m.h"
  546 00000000         
  547 00000000         
  548 00000000         
  549 00000000         
  550 00000000         
  551 00000000         
  552 00000000         
  553 00000000         
  554 00000000         
  555 00000000         
  556 00000000         
  557 00000000         
  558 00000000         
  559 00000000         
  560 00000000         
  561 00000000         
  562 00000000         
  563 00000000         
  564 00000000         
  565 00000000         
  566 00000000         



ARM Macro Assembler    Page 7 


  567 00000000         
  568 00000000         #line   576              "C:\\Users\\trent\\AppData\\Loc
al\\Arm\\Packs\\AnalogDevices\\ADuCM355_DFP\\1.0.3\\ADuCM355\\inc\\ADuCM355_bit
m.h"
  576 00000000         
  577 00000000         
  578 00000000         
  579 00000000         
  580 00000000         
  581 00000000         
  582 00000000         
  583 00000000         
  584 00000000         
  585 00000000         
  586 00000000         
  587 00000000         
  588 00000000         
  589 00000000         
  590 00000000         
  591 00000000         
  592 00000000         #line   604              "C:\\Users\\trent\\AppData\\Loc
al\\Arm\\Packs\\AnalogDevices\\ADuCM355_DFP\\1.0.3\\ADuCM355\\inc\\ADuCM355_bit
m.h"
  604 00000000         
  605 00000000         
  606 00000000         
  607 00000000         
  608 00000000         #line   634              "C:\\Users\\trent\\AppData\\Loc
al\\Arm\\Packs\\AnalogDevices\\ADuCM355_DFP\\1.0.3\\ADuCM355\\inc\\ADuCM355_bit
m.h"
  634 00000000         
  635 00000000         
  636 00000000         
  637 00000000         
  638 00000000         
  639 00000000         
  640 00000000         
  641 00000000         
  642 00000000         
  643 00000000         
  644 00000000         
  645 00000000         
  646 00000000         #line   652              "C:\\Users\\trent\\AppData\\Loc
al\\Arm\\Packs\\AnalogDevices\\ADuCM355_DFP\\1.0.3\\ADuCM355\\inc\\ADuCM355_bit
m.h"
  652 00000000         
  653 00000000         
  654 00000000         
  655 00000000         
  656 00000000         
  657 00000000         
  658 00000000         
  659 00000000         
  660 00000000         
  661 00000000         
  662 00000000         
  663 00000000         
  664 00000000         
  665 00000000         



ARM Macro Assembler    Page 8 


  666 00000000         
  667 00000000         
  668 00000000         
  669 00000000         
  670 00000000         
  671 00000000         
  672 00000000         
  673 00000000         
  674 00000000         
  675 00000000         
  676 00000000         
  677 00000000         
  678 00000000         
  679 00000000         
  680 00000000         
  681 00000000         
  682 00000000         
  683 00000000         
  684 00000000         
  685 00000000         
  686 00000000         
  687 00000000         
  688 00000000         
  689 00000000         
  690 00000000         
  691 00000000         
  692 00000000         #line   714              "C:\\Users\\trent\\AppData\\Loc
al\\Arm\\Packs\\AnalogDevices\\ADuCM355_DFP\\1.0.3\\ADuCM355\\inc\\ADuCM355_bit
m.h"
  714 00000000         
  715 00000000         
  716 00000000         
  717 00000000         
  718 00000000         #line   740              "C:\\Users\\trent\\AppData\\Loc
al\\Arm\\Packs\\AnalogDevices\\ADuCM355_DFP\\1.0.3\\ADuCM355\\inc\\ADuCM355_bit
m.h"
  740 00000000         
  741 00000000         
  742 00000000         
  743 00000000         
  744 00000000         #line   756              "C:\\Users\\trent\\AppData\\Loc
al\\Arm\\Packs\\AnalogDevices\\ADuCM355_DFP\\1.0.3\\ADuCM355\\inc\\ADuCM355_bit
m.h"
  756 00000000         
  757 00000000         
  758 00000000         
  759 00000000         
  760 00000000         
  761 00000000         
  762 00000000         
  763 00000000         
  764 00000000         
  765 00000000         
  766 00000000         
  767 00000000         
  768 00000000         
  769 00000000         
  770 00000000         
  771 00000000         



ARM Macro Assembler    Page 9 


  772 00000000         
  773 00000000         
  774 00000000         
  775 00000000         
  776 00000000         
  777 00000000         
  778 00000000         
  779 00000000         
  780 00000000         
  781 00000000         
  782 00000000         
  783 00000000         
  784 00000000         
  785 00000000         
  786 00000000         
  787 00000000         
  788 00000000         
  789 00000000         
  790 00000000         
  791 00000000         
  792 00000000         
  793 00000000         
  794 00000000         
  795 00000000         
  796 00000000         
  797 00000000         
  798 00000000         
  799 00000000         
  800 00000000         
  801 00000000         
  802 00000000         
  803 00000000         
  804 00000000         
  805 00000000         
  806 00000000         
  807 00000000         
  808 00000000         
  809 00000000         
  810 00000000         
  811 00000000         
  812 00000000         
  813 00000000         
  814 00000000         
  815 00000000         
  816 00000000         
  817 00000000         
  818 00000000         
  819 00000000         
  820 00000000         
  821 00000000         
  822 00000000         
  823 00000000         
  824 00000000         
  825 00000000         
  826 00000000         
  827 00000000         
  828 00000000         
  829 00000000         
  830 00000000         



ARM Macro Assembler    Page 10 


  831 00000000         
  832 00000000         
  833 00000000         
  834 00000000         
  835 00000000         
  836 00000000         #line   850              "C:\\Users\\trent\\AppData\\Loc
al\\Arm\\Packs\\AnalogDevices\\ADuCM355_DFP\\1.0.3\\ADuCM355\\inc\\ADuCM355_bit
m.h"
  850 00000000         
  851 00000000         
  852 00000000         
  853 00000000         
  854 00000000         
  855 00000000         
  856 00000000         
  857 00000000         
  858 00000000         
  859 00000000         
  860 00000000         #line   872              "C:\\Users\\trent\\AppData\\Loc
al\\Arm\\Packs\\AnalogDevices\\ADuCM355_DFP\\1.0.3\\ADuCM355\\inc\\ADuCM355_bit
m.h"
  872 00000000         
  873 00000000         
  874 00000000         
  875 00000000         
  876 00000000         
  877 00000000         
  878 00000000         
  879 00000000         
  880 00000000         
  881 00000000         #line   904              "C:\\Users\\trent\\AppData\\Loc
al\\Arm\\Packs\\AnalogDevices\\ADuCM355_DFP\\1.0.3\\ADuCM355\\inc\\ADuCM355_bit
m.h"
  904 00000000         
  905 00000000         
  906 00000000         
  907 00000000         
  908 00000000         
  909 00000000         
  910 00000000         
  911 00000000         #line   939              "C:\\Users\\trent\\AppData\\Loc
al\\Arm\\Packs\\AnalogDevices\\ADuCM355_DFP\\1.0.3\\ADuCM355\\inc\\ADuCM355_bit
m.h"
  939 00000000         
  940 00000000         
  941 00000000         
  942 00000000         
  943 00000000         #line   971              "C:\\Users\\trent\\AppData\\Loc
al\\Arm\\Packs\\AnalogDevices\\ADuCM355_DFP\\1.0.3\\ADuCM355\\inc\\ADuCM355_bit
m.h"
  971 00000000         
  972 00000000         
  973 00000000         
  974 00000000         
  975 00000000         
  976 00000000         
  977 00000000         
  978 00000000         
  979 00000000         



ARM Macro Assembler    Page 11 


  980 00000000         
  981 00000000         
  982 00000000         
  983 00000000         
  984 00000000         
  985 00000000         
  986 00000000         
  987 00000000         
  988 00000000         
  989 00000000         
  990 00000000         
  991 00000000         
  992 00000000         
  993 00000000         
  994 00000000         
  995 00000000         
  996 00000000         
  997 00000000         
  998 00000000         
  999 00000000         
 1000 00000000         
 1001 00000000         
 1002 00000000         
 1003 00000000         
 1004 00000000         
 1005 00000000         
 1006 00000000         
 1007 00000000         
 1008 00000000         
 1009 00000000         
 1010 00000000         
 1011 00000000         
 1012 00000000         
 1013 00000000         
 1014 00000000         
 1015 00000000         
 1016 00000000         
 1017 00000000         
 1018 00000000         
 1019 00000000         
 1020 00000000         
 1021 00000000         
 1022 00000000         
 1023 00000000         
 1024 00000000         
 1025 00000000         
 1026 00000000         
 1027 00000000         #line   1055             "C:\\Users\\trent\\AppData\\Loc
al\\Arm\\Packs\\AnalogDevices\\ADuCM355_DFP\\1.0.3\\ADuCM355\\inc\\ADuCM355_bit
m.h"
 1055 00000000         
 1056 00000000         
 1057 00000000         
 1058 00000000         
 1059 00000000         #line   1085             "C:\\Users\\trent\\AppData\\Loc
al\\Arm\\Packs\\AnalogDevices\\ADuCM355_DFP\\1.0.3\\ADuCM355\\inc\\ADuCM355_bit
m.h"
 1085 00000000         
 1086 00000000         



ARM Macro Assembler    Page 12 


 1087 00000000         
 1088 00000000         
 1089 00000000         
 1090 00000000         
 1091 00000000         
 1092 00000000         
 1093 00000000         
 1094 00000000         
 1095 00000000         
 1096 00000000         
 1097 00000000         
 1098 00000000         
 1099 00000000         
 1100 00000000         
 1101 00000000         
 1102 00000000         
 1103 00000000         
 1104 00000000         
 1105 00000000         
 1106 00000000         
 1107 00000000         
 1108 00000000         
 1109 00000000         
 1110 00000000         
 1111 00000000         
 1112 00000000         
 1113 00000000         
 1114 00000000         
 1115 00000000         
 1116 00000000         
 1117 00000000         
 1118 00000000         
 1119 00000000         
 1120 00000000         
 1121 00000000         
 1122 00000000         
 1123 00000000         
 1124 00000000         
 1125 00000000         
 1126 00000000         
 1127 00000000         
 1128 00000000         
 1129 00000000         
 1130 00000000         
 1131 00000000         #line   1143             "C:\\Users\\trent\\AppData\\Loc
al\\Arm\\Packs\\AnalogDevices\\ADuCM355_DFP\\1.0.3\\ADuCM355\\inc\\ADuCM355_bit
m.h"
 1143 00000000         
 1144 00000000         
 1145 00000000         
 1146 00000000         
 1147 00000000         
 1148 00000000         
 1149 00000000         
 1150 00000000         
 1151 00000000         
 1152 00000000         
 1153 00000000         
 1154 00000000         



ARM Macro Assembler    Page 13 


 1155 00000000         
 1156 00000000         
 1157 00000000         
 1158 00000000         
 1159 00000000         
 1160 00000000         
 1161 00000000         #line   1169             "C:\\Users\\trent\\AppData\\Loc
al\\Arm\\Packs\\AnalogDevices\\ADuCM355_DFP\\1.0.3\\ADuCM355\\inc\\ADuCM355_bit
m.h"
 1169 00000000         
 1170 00000000         
 1171 00000000         
 1172 00000000         
 1173 00000000         
 1174 00000000         
 1175 00000000         
 1176 00000000         
 1177 00000000         
 1178 00000000         #line   1192             "C:\\Users\\trent\\AppData\\Loc
al\\Arm\\Packs\\AnalogDevices\\ADuCM355_DFP\\1.0.3\\ADuCM355\\inc\\ADuCM355_bit
m.h"
 1192 00000000         
 1193 00000000         
 1194 00000000         
 1195 00000000         
 1196 00000000         #line   1210             "C:\\Users\\trent\\AppData\\Loc
al\\Arm\\Packs\\AnalogDevices\\ADuCM355_DFP\\1.0.3\\ADuCM355\\inc\\ADuCM355_bit
m.h"
 1210 00000000         
 1211 00000000         
 1212 00000000         
 1213 00000000         
 1214 00000000         
 1215 00000000         
 1216 00000000         
 1217 00000000         #line   1243             "C:\\Users\\trent\\AppData\\Loc
al\\Arm\\Packs\\AnalogDevices\\ADuCM355_DFP\\1.0.3\\ADuCM355\\inc\\ADuCM355_bit
m.h"
 1243 00000000         
 1244 00000000         
 1245 00000000         
 1246 00000000         
 1247 00000000         
 1248 00000000         
 1249 00000000         
 1250 00000000         
 1251 00000000         
 1252 00000000         
 1253 00000000         
 1254 00000000         
 1255 00000000         
 1256 00000000         
 1257 00000000         
 1258 00000000         
 1259 00000000         
 1260 00000000         
 1261 00000000         
 1262 00000000         
 1263 00000000         



ARM Macro Assembler    Page 14 


 1264 00000000         
 1265 00000000         
 1266 00000000         
 1267 00000000         
 1268 00000000         
 1269 00000000         #line   1299             "C:\\Users\\trent\\AppData\\Loc
al\\Arm\\Packs\\AnalogDevices\\ADuCM355_DFP\\1.0.3\\ADuCM355\\inc\\ADuCM355_bit
m.h"
 1299 00000000         
 1300 00000000         
 1301 00000000         
 1302 00000000         
 1303 00000000         #line   1319             "C:\\Users\\trent\\AppData\\Loc
al\\Arm\\Packs\\AnalogDevices\\ADuCM355_DFP\\1.0.3\\ADuCM355\\inc\\ADuCM355_bit
m.h"
 1319 00000000         
 1320 00000000         
 1321 00000000         
 1322 00000000         
 1323 00000000         
 1324 00000000         
 1325 00000000         
 1326 00000000         
 1327 00000000         
 1328 00000000         
 1329 00000000         
 1330 00000000         
 1331 00000000         #line   1337             "C:\\Users\\trent\\AppData\\Loc
al\\Arm\\Packs\\AnalogDevices\\ADuCM355_DFP\\1.0.3\\ADuCM355\\inc\\ADuCM355_bit
m.h"
 1337 00000000         
 1338 00000000         
 1339 00000000         
 1340 00000000         
 1341 00000000         
 1342 00000000         
 1343 00000000         
 1344 00000000         
 1345 00000000         
 1346 00000000         
 1347 00000000         
 1348 00000000         
 1349 00000000         #line   1357             "C:\\Users\\trent\\AppData\\Loc
al\\Arm\\Packs\\AnalogDevices\\ADuCM355_DFP\\1.0.3\\ADuCM355\\inc\\ADuCM355_bit
m.h"
 1357 00000000         
 1358 00000000         
 1359 00000000         
 1360 00000000         
 1361 00000000         #line   1367             "C:\\Users\\trent\\AppData\\Loc
al\\Arm\\Packs\\AnalogDevices\\ADuCM355_DFP\\1.0.3\\ADuCM355\\inc\\ADuCM355_bit
m.h"
 1367 00000000         
 1368 00000000         
 1369 00000000         
 1370 00000000         
 1371 00000000         
 1372 00000000         
 1373 00000000         



ARM Macro Assembler    Page 15 


 1374 00000000         
 1375 00000000         
 1376 00000000         
 1377 00000000         
 1378 00000000         
 1379 00000000         
 1380 00000000         
 1381 00000000         
 1382 00000000         
 1383 00000000         
 1384 00000000         
 1385 00000000         
 1386 00000000         
 1387 00000000         
 1388 00000000         
 1389 00000000         
 1390 00000000         
 1391 00000000         
 1392 00000000         
 1393 00000000         
 1394 00000000         #line   1414             "C:\\Users\\trent\\AppData\\Loc
al\\Arm\\Packs\\AnalogDevices\\ADuCM355_DFP\\1.0.3\\ADuCM355\\inc\\ADuCM355_bit
m.h"
 1414 00000000         
 1415 00000000         
 1416 00000000         
 1417 00000000         
 1418 00000000         
 1419 00000000         
 1420 00000000         
 1421 00000000         
 1422 00000000         
 1423 00000000         
 1424 00000000         
 1425 00000000         
 1426 00000000         
 1427 00000000         
 1428 00000000         
 1429 00000000         
 1430 00000000         
 1431 00000000         
 1432 00000000         
 1433 00000000         #line   1445             "C:\\Users\\trent\\AppData\\Loc
al\\Arm\\Packs\\AnalogDevices\\ADuCM355_DFP\\1.0.3\\ADuCM355\\inc\\ADuCM355_bit
m.h"
 1445 00000000         
 1446 00000000         
 1447 00000000         
 1448 00000000         
 1449 00000000         #line   1455             "C:\\Users\\trent\\AppData\\Loc
al\\Arm\\Packs\\AnalogDevices\\ADuCM355_DFP\\1.0.3\\ADuCM355\\inc\\ADuCM355_bit
m.h"
 1455 00000000         
 1456 00000000         
 1457 00000000         
 1458 00000000         
 1459 00000000         #line   1471             "C:\\Users\\trent\\AppData\\Loc
al\\Arm\\Packs\\AnalogDevices\\ADuCM355_DFP\\1.0.3\\ADuCM355\\inc\\ADuCM355_bit
m.h"



ARM Macro Assembler    Page 16 


 1471 00000000         
 1472 00000000         
 1473 00000000         
 1474 00000000         
 1475 00000000         #line   1485             "C:\\Users\\trent\\AppData\\Loc
al\\Arm\\Packs\\AnalogDevices\\ADuCM355_DFP\\1.0.3\\ADuCM355\\inc\\ADuCM355_bit
m.h"
 1485 00000000         
 1486 00000000         
 1487 00000000         
 1488 00000000         
 1489 00000000         #line   1505             "C:\\Users\\trent\\AppData\\Loc
al\\Arm\\Packs\\AnalogDevices\\ADuCM355_DFP\\1.0.3\\ADuCM355\\inc\\ADuCM355_bit
m.h"
 1505 00000000         
 1506 00000000         
 1507 00000000         
 1508 00000000         
 1509 00000000         #line   1525             "C:\\Users\\trent\\AppData\\Loc
al\\Arm\\Packs\\AnalogDevices\\ADuCM355_DFP\\1.0.3\\ADuCM355\\inc\\ADuCM355_bit
m.h"
 1525 00000000         
 1526 00000000         
 1527 00000000         
 1528 00000000         
 1529 00000000         
 1530 00000000         
 1531 00000000         
 1532 00000000         
 1533 00000000         
 1534 00000000         
 1535 00000000         #line   1547             "C:\\Users\\trent\\AppData\\Loc
al\\Arm\\Packs\\AnalogDevices\\ADuCM355_DFP\\1.0.3\\ADuCM355\\inc\\ADuCM355_bit
m.h"
 1547 00000000         
 1548 00000000         
 1549 00000000         
 1550 00000000         
 1551 00000000         #line   1557             "C:\\Users\\trent\\AppData\\Loc
al\\Arm\\Packs\\AnalogDevices\\ADuCM355_DFP\\1.0.3\\ADuCM355\\inc\\ADuCM355_bit
m.h"
 1557 00000000         
 1558 00000000         
 1559 00000000         
 1560 00000000         
 1561 00000000         
 1562 00000000         
 1563 00000000         
 1564 00000000         
 1565 00000000         
 1566 00000000         
 1567 00000000         
 1568 00000000         
 1569 00000000         
 1570 00000000         
 1571 00000000         
 1572 00000000         
 1573 00000000         #line   1581             "C:\\Users\\trent\\AppData\\Loc
al\\Arm\\Packs\\AnalogDevices\\ADuCM355_DFP\\1.0.3\\ADuCM355\\inc\\ADuCM355_bit



ARM Macro Assembler    Page 17 


m.h"
 1581 00000000         
 1582 00000000         
 1583 00000000         
 1584 00000000         
 1585 00000000         
 1586 00000000         
 1587 00000000         
 1588 00000000         
 1589 00000000         
 1590 00000000         
 1591 00000000         
 1592 00000000         
 1593 00000000         
 1594 00000000         
 1595 00000000         
 1596 00000000         
 1597 00000000         #line   1605             "C:\\Users\\trent\\AppData\\Loc
al\\Arm\\Packs\\AnalogDevices\\ADuCM355_DFP\\1.0.3\\ADuCM355\\inc\\ADuCM355_bit
m.h"
 1605 00000000         
 1606 00000000         
 1607 00000000         
 1608 00000000         
 1609 00000000         #line   1619             "C:\\Users\\trent\\AppData\\Loc
al\\Arm\\Packs\\AnalogDevices\\ADuCM355_DFP\\1.0.3\\ADuCM355\\inc\\ADuCM355_bit
m.h"
 1619 00000000         
 1620 00000000         
 1621 00000000         
 1622 00000000         
 1623 00000000         #line   1633             "C:\\Users\\trent\\AppData\\Loc
al\\Arm\\Packs\\AnalogDevices\\ADuCM355_DFP\\1.0.3\\ADuCM355\\inc\\ADuCM355_bit
m.h"
 1633 00000000         
 1634 00000000         
 1635 00000000         
 1636 00000000         
 1637 00000000         
 1638 00000000         
 1639 00000000         
 1640 00000000         
 1641 00000000         
 1642 00000000         
 1643 00000000         
 1644 00000000         
 1645 00000000         
 1646 00000000         
 1647 00000000         
 1648 00000000         #line   1671             "C:\\Users\\trent\\AppData\\Loc
al\\Arm\\Packs\\AnalogDevices\\ADuCM355_DFP\\1.0.3\\ADuCM355\\inc\\ADuCM355_bit
m.h"
 1671 00000000         
 1672 00000000         
 1673 00000000         
 1674 00000000         
 1675 00000000         
 1676 00000000         
 1677 00000000         



ARM Macro Assembler    Page 18 


 1678 00000000         
 1679 00000000         
 1680 00000000         
 1681 00000000         
 1682 00000000         
 1683 00000000         
 1684 00000000         
 1685 00000000         
 1686 00000000         
 1687 00000000         
 1688 00000000         
 1689 00000000         
 1690 00000000         
 1691 00000000         
 1692 00000000         
 1693 00000000         
 1694 00000000         
 1695 00000000         
 1696 00000000         
 1697 00000000         
 1698 00000000         
 1699 00000000         
 1700 00000000         
 1701 00000000         
 1702 00000000         
 1703 00000000         
 1704 00000000         
 1705 00000000         
 1706 00000000         
 1707 00000000         
 1708 00000000         
 1709 00000000         
 1710 00000000         
 1711 00000000         
 1712 00000000         
 1713 00000000         
 1714 00000000         
 1715 00000000         
 1716 00000000         
 1717 00000000         
 1718 00000000         
 1719 00000000         
 1720 00000000         
 1721 00000000         
 1722 00000000         
 1723 00000000         
 1724 00000000         
 1725 00000000         
 1726 00000000         
 1727 00000000         
 1728 00000000         
 1729 00000000         
 1730 00000000         
 1731 00000000         
 1732 00000000         
 1733 00000000         
 1734 00000000         
 1735 00000000         
 1736 00000000         



ARM Macro Assembler    Page 19 


 1737 00000000         
 1738 00000000         
 1739 00000000         
 1740 00000000         
 1741 00000000         
 1742 00000000         
 1743 00000000         
 1744 00000000         
 1745 00000000         
 1746 00000000         
 1747 00000000         
 1748 00000000         
 1749 00000000         
 1750 00000000         
 1751 00000000         
 1752 00000000         
 1753 00000000         
 1754 00000000         
 1755 00000000         
 1756 00000000         
 1757 00000000         
 1758 00000000         
 1759 00000000         
 1760 00000000         
 1761 00000000         
 1762 00000000         
 1763 00000000         
 1764 00000000         
 1765 00000000         
 1766 00000000         
 1767 00000000         
 1768 00000000         
 1769 00000000         
 1770 00000000         
 1771 00000000         
 1772 00000000         
 1773 00000000         
 1774 00000000         
 1775 00000000         
 1776 00000000         
 1777 00000000         
 1778 00000000         
 1779 00000000         
 1780 00000000         
 1781 00000000         
 1782 00000000         
 1783 00000000         
 1784 00000000         
 1785 00000000         
 1786 00000000         
 1787 00000000         
 1788 00000000         
 1789 00000000         
 1790 00000000         
 1791 00000000         
 1792 00000000         
 1793 00000000         
 1794 00000000         
 1795 00000000         



ARM Macro Assembler    Page 20 


 1796 00000000         
 1797 00000000         
 1798 00000000         
 1799 00000000         
 1800 00000000         
 1801 00000000         
 1802 00000000         
 1803 00000000         
 1804 00000000         
 1805 00000000         
 1806 00000000         
 1807 00000000         
 1808 00000000         
 1809 00000000         
 1810 00000000         
 1811 00000000         
 1812 00000000         
 1813 00000000         
 1814 00000000         
 1815 00000000         
 1816 00000000         
 1817 00000000         
 1818 00000000         
 1819 00000000         
 1820 00000000         
 1821 00000000         
 1822 00000000         
 1823 00000000         #line   1843             "C:\\Users\\trent\\AppData\\Loc
al\\Arm\\Packs\\AnalogDevices\\ADuCM355_DFP\\1.0.3\\ADuCM355\\inc\\ADuCM355_bit
m.h"
 1843 00000000         
 1844 00000000         
 1845 00000000         
 1846 00000000         
 1847 00000000         
 1848 00000000         
 1849 00000000         
 1850 00000000         #line   1882             "C:\\Users\\trent\\AppData\\Loc
al\\Arm\\Packs\\AnalogDevices\\ADuCM355_DFP\\1.0.3\\ADuCM355\\inc\\ADuCM355_bit
m.h"
 1882 00000000         
 1883 00000000         
 1884 00000000         
 1885 00000000         
 1886 00000000         #line   1902             "C:\\Users\\trent\\AppData\\Loc
al\\Arm\\Packs\\AnalogDevices\\ADuCM355_DFP\\1.0.3\\ADuCM355\\inc\\ADuCM355_bit
m.h"
 1902 00000000         
 1903 00000000         
 1904 00000000         
 1905 00000000         
 1906 00000000         #line   1916             "C:\\Users\\trent\\AppData\\Loc
al\\Arm\\Packs\\AnalogDevices\\ADuCM355_DFP\\1.0.3\\ADuCM355\\inc\\ADuCM355_bit
m.h"
 1916 00000000         
 1917 00000000         
 1918 00000000         
 1919 00000000         
 1920 00000000         



ARM Macro Assembler    Page 21 


 1921 00000000         
 1922 00000000         
 1923 00000000         
 1924 00000000         
 1925 00000000         
 1926 00000000         
 1927 00000000         
 1928 00000000         
 1929 00000000         
 1930 00000000         
 1931 00000000         
 1932 00000000         
 1933 00000000         
 1934 00000000         
 1935 00000000         
 1936 00000000         
 1937 00000000         
 1938 00000000         
 1939 00000000         
 1940 00000000         
 1941 00000000         
 1942 00000000         
 1943 00000000         
 1944 00000000         
 1945 00000000         
 1946 00000000         
 1947 00000000         
 1948 00000000         
 1949 00000000         
 1950 00000000         
 1951 00000000         
 1952 00000000         
 1953 00000000         
 1954 00000000         
 1955 00000000         
 1956 00000000         
 1957 00000000         
 1958 00000000         
 1959 00000000         
 1960 00000000         
 1961 00000000         
 1962 00000000         
 1963 00000000         
 1964 00000000         
 1965 00000000         
 1966 00000000         
 1967 00000000         
 1968 00000000         
 1969 00000000         
 1970 00000000         
 1971 00000000         
 1972 00000000         
 1973 00000000         
 1974 00000000         
 1975 00000000         
 1976 00000000         
 1977 00000000         
 1978 00000000         
 1979 00000000         



ARM Macro Assembler    Page 22 


 1980 00000000         
 1981 00000000         
 1982 00000000         
 1983 00000000         #line   1999             "C:\\Users\\trent\\AppData\\Loc
al\\Arm\\Packs\\AnalogDevices\\ADuCM355_DFP\\1.0.3\\ADuCM355\\inc\\ADuCM355_bit
m.h"
 1999 00000000         
 2000 00000000         
 2001 00000000         
 2002 00000000         
 2003 00000000         
 2004 00000000         
 2005 00000000         
 2006 00000000         
 2007 00000000         
 2008 00000000         
 2009 00000000         
 2010 00000000         
 2011 00000000         
 2012 00000000         
 2013 00000000         
 2014 00000000         
 2015 00000000         
 2016 00000000         
 2017 00000000         
 2018 00000000         
 2019 00000000         
 2020 00000000         
 2021 00000000         #line   2027             "C:\\Users\\trent\\AppData\\Loc
al\\Arm\\Packs\\AnalogDevices\\ADuCM355_DFP\\1.0.3\\ADuCM355\\inc\\ADuCM355_bit
m.h"
 2027 00000000         
 2028 00000000         
 2029 00000000         
 2030 00000000         
 2031 00000000         
 2032 00000000         
 2033 00000000         
 2034 00000000         
 2035 00000000         
 2036 00000000         
 2037 00000000         
 2038 00000000         
 2039 00000000         
 2040 00000000         
 2041 00000000         
 2042 00000000         
 2043 00000000         
 2044 00000000         
 2045 00000000         
 2046 00000000         
 2047 00000000         
 2048 00000000         
 2049 00000000         
 2050 00000000         
 2051 00000000         
 2052 00000000         
 2053 00000000         
 2054 00000000         



ARM Macro Assembler    Page 23 


 2055 00000000         
 2056 00000000         
 2057 00000000         
 2058 00000000         
 2059 00000000         
 2060 00000000         
 2061 00000000         
 2062 00000000         
 2063 00000000         
 2064 00000000         
 2065 00000000         
 2066 00000000         
 2067 00000000         
 2068 00000000         
 2069 00000000         
 2070 00000000         
 2071 00000000         
 2072 00000000         
 2073 00000000         
 2074 00000000         
 2075 00000000         
 2076 00000000         
 2077 00000000         
 2078 00000000         
 2079 00000000         
 2080 00000000         
 2081 00000000         #line   2095             "C:\\Users\\trent\\AppData\\Loc
al\\Arm\\Packs\\AnalogDevices\\ADuCM355_DFP\\1.0.3\\ADuCM355\\inc\\ADuCM355_bit
m.h"
 2095 00000000         
 2096 00000000         
 2097 00000000         
 2098 00000000         
 2099 00000000         #line   2113             "C:\\Users\\trent\\AppData\\Loc
al\\Arm\\Packs\\AnalogDevices\\ADuCM355_DFP\\1.0.3\\ADuCM355\\inc\\ADuCM355_bit
m.h"
 2113 00000000         
 2114 00000000         
 2115 00000000         
 2116 00000000         
 2117 00000000         #line   2131             "C:\\Users\\trent\\AppData\\Loc
al\\Arm\\Packs\\AnalogDevices\\ADuCM355_DFP\\1.0.3\\ADuCM355\\inc\\ADuCM355_bit
m.h"
 2131 00000000         
 2132 00000000         
 2133 00000000         
 2134 00000000         
 2135 00000000         
 2136 00000000         
 2137 00000000         
 2138 00000000         #line   2170             "C:\\Users\\trent\\AppData\\Loc
al\\Arm\\Packs\\AnalogDevices\\ADuCM355_DFP\\1.0.3\\ADuCM355\\inc\\ADuCM355_bit
m.h"
 2170 00000000         
 2171 00000000         
 2172 00000000         
 2173 00000000         
 2174 00000000         
 2175 00000000         



ARM Macro Assembler    Page 24 


 2176 00000000         
 2177 00000000         
 2178 00000000         
 2179 00000000         
 2180 00000000         
 2181 00000000         
 2182 00000000         
 2183 00000000         
 2184 00000000         
 2185 00000000         
 2186 00000000         
 2187 00000000         
 2188 00000000         
 2189 00000000         
 2190 00000000         
 2191 00000000         
 2192 00000000         
 2193 00000000         
 2194 00000000         
 2195 00000000         
 2196 00000000         
 2197 00000000         
 2198 00000000         
 2199 00000000         
 2200 00000000         
 2201 00000000         
 2202 00000000         
 2203 00000000         
 2204 00000000         
 2205 00000000         
 2206 00000000         
 2207 00000000         
 2208 00000000         
 2209 00000000         
 2210 00000000         
 2211 00000000         
 2212 00000000         
 2213 00000000         
 2214 00000000         
 2215 00000000         
 2216 00000000         
 2217 00000000         
 2218 00000000         
 2219 00000000         
 2220 00000000         
 2221 00000000         
 2222 00000000         
 2223 00000000         
 2224 00000000         
 2225 00000000         
 2226 00000000         
 2227 00000000         
 2228 00000000         
 2229 00000000         
 2230 00000000         
 2231 00000000         
 2232 00000000         
 2233 00000000         
 2234 00000000         



ARM Macro Assembler    Page 25 


 2235 00000000         
 2236 00000000         
 2237 00000000         
 2238 00000000         
 2239 00000000         
 2240 00000000         
 2241 00000000         
 2242 00000000         
 2243 00000000         
 2244 00000000         
 2245 00000000         
 2246 00000000         
 2247 00000000         
 2248 00000000         
 2249 00000000         
 2250 00000000         
 2251 00000000         
 2252 00000000         
 2253 00000000         
 2254 00000000         
 2255 00000000         
 2256 00000000         
 2257 00000000         #line   2272             "C:\\Users\\trent\\AppData\\Loc
al\\Arm\\Packs\\AnalogDevices\\ADuCM355_DFP\\1.0.3\\ADuCM355\\inc\\ADuCM355_bit
m.h"
 2272 00000000         
 2273 00000000         
 2274 00000000         
 2275 00000000         
 2276 00000000         
 2277 00000000         
 2278 00000000         
 2279 00000000         #line   2291             "C:\\Users\\trent\\AppData\\Loc
al\\Arm\\Packs\\AnalogDevices\\ADuCM355_DFP\\1.0.3\\ADuCM355\\inc\\ADuCM355_bit
m.h"
 2291 00000000         
 2292 00000000         
 2293 00000000         
 2294 00000000         
 2295 00000000         
 2296 00000000         
 2297 00000000         
 2298 00000000         
 2299 00000000         
 2300 00000000         
 2301 00000000         
 2302 00000000         
 2303 00000000         
 2304 00000000         
 2305 00000000         
 2306 00000000         
 2307 00000000         
 2308 00000000         
 2309 00000000         
 2310 00000000         
 2311 00000000         
 2312 00000000         
 2313 00000000         
 2314 00000000         



ARM Macro Assembler    Page 26 


 2315 00000000         
 2316 00000000         
 2317 00000000         
 2318 00000000         
 2319 00000000         
 2320 00000000         
 2321 00000000         
 2322 00000000         
 2323 00000000         
 2324 00000000         
 2325 00000000         
 2326 00000000         
 2327 00000000         
 2328 00000000         
 2329 00000000         
 2330 00000000         #line   2341             "C:\\Users\\trent\\AppData\\Loc
al\\Arm\\Packs\\AnalogDevices\\ADuCM355_DFP\\1.0.3\\ADuCM355\\inc\\ADuCM355_bit
m.h"
 2341 00000000         
 2342 00000000         
 2343 00000000         
 2344 00000000         
 2345 00000000         
 2346 00000000         
 2347 00000000         
 2348 00000000         #line   2356             "C:\\Users\\trent\\AppData\\Loc
al\\Arm\\Packs\\AnalogDevices\\ADuCM355_DFP\\1.0.3\\ADuCM355\\inc\\ADuCM355_bit
m.h"
 2356 00000000         
 2357 00000000         
 2358 00000000         
 2359 00000000         
 2360 00000000         
 2361 00000000         
 2362 00000000         
 2363 00000000         
 2364 00000000         
 2365 00000000         
 2366 00000000         
 2367 00000000         
 2368 00000000         
 2369 00000000         
 2370 00000000         
 2371 00000000         
 2372 00000000         
 2373 00000000         
 2374 00000000         
 2375 00000000         
 2376 00000000         
 2377 00000000         
 2378 00000000         
 2379 00000000         
 2380 00000000         
 2381 00000000         
 2382 00000000         
 2383 00000000         
 2384 00000000         
 2385 00000000         
 2386 00000000         



ARM Macro Assembler    Page 27 


 2387 00000000         
 2388 00000000         
 2389 00000000         
 2390 00000000         
 2391 00000000         
 2392 00000000         
 2393 00000000         
 2394 00000000         
 2395 00000000         
 2396 00000000         
 2397 00000000         
 2398 00000000         
 2399 00000000         
 2400 00000000         
 2401 00000000         #line   2431             "C:\\Users\\trent\\AppData\\Loc
al\\Arm\\Packs\\AnalogDevices\\ADuCM355_DFP\\1.0.3\\ADuCM355\\inc\\ADuCM355_bit
m.h"
 2431 00000000         
 2432 00000000         
 2433 00000000         
 2434 00000000         
 2435 00000000         
 2436 00000000         
 2437 00000000         
 2438 00000000         #line   2482             "C:\\Users\\trent\\AppData\\Loc
al\\Arm\\Packs\\AnalogDevices\\ADuCM355_DFP\\1.0.3\\ADuCM355\\inc\\ADuCM355_bit
m.h"
 2482 00000000         
 2483 00000000         
 2484 00000000         
 2485 00000000         
 2486 00000000         
 2487 00000000         
 2488 00000000         
 2489 00000000         
 2490 00000000         
 2491 00000000         
 2492 00000000         
 2493 00000000         
 2494 00000000         
 2495 00000000         
 2496 00000000         
 2497 00000000         
 2498 00000000         #line   2508             "C:\\Users\\trent\\AppData\\Loc
al\\Arm\\Packs\\AnalogDevices\\ADuCM355_DFP\\1.0.3\\ADuCM355\\inc\\ADuCM355_bit
m.h"
 2508 00000000         
 2509 00000000         
 2510 00000000         
 2511 00000000         
 2512 00000000         #line   2528             "C:\\Users\\trent\\AppData\\Loc
al\\Arm\\Packs\\AnalogDevices\\ADuCM355_DFP\\1.0.3\\ADuCM355\\inc\\ADuCM355_bit
m.h"
 2528 00000000         
 2529 00000000         
 2530 00000000         
 2531 00000000         
 2532 00000000         
 2533 00000000         



ARM Macro Assembler    Page 28 


 2534 00000000         
 2535 00000000         
 2536 00000000         
 2537 00000000         
 2538 00000000         
 2539 00000000         
 2540 00000000         
 2541 00000000         
 2542 00000000         
 2543 00000000         
 2544 00000000         
 2545 00000000         
 2546 00000000         
 2547 00000000         
 2548 00000000         
 2549 00000000         
 2550 00000000         
 2551 00000000         
 2552 00000000         
 2553 00000000         
 2554 00000000         
 2555 00000000         
 2556 00000000         
 2557 00000000         
 2558 00000000         
 2559 00000000         
 2560 00000000         
 2561 00000000         
 2562 00000000         
 2563 00000000         
 2564 00000000         
 2565 00000000         
 2566 00000000         
 2567 00000000         
 2568 00000000         
 2569 00000000         
 2570 00000000         
 2571 00000000         
 2572 00000000         
 2573 00000000         
 2574 00000000         
 2575 00000000         
 2576 00000000         
 2577 00000000         
 2578 00000000         
 2579 00000000         
 2580 00000000         
 2581 00000000         
 2582 00000000         
 2583 00000000         
 2584 00000000         
 2585 00000000         
 2586 00000000         
 2587 00000000         
 2588 00000000         
 2589 00000000         
 2590 00000000         
 2591 00000000         
 2592 00000000         



ARM Macro Assembler    Page 29 


 2593 00000000         
 2594 00000000         
 2595 00000000         
 2596 00000000         
 2597 00000000         
 2598 00000000         
 2599 00000000         
 2600 00000000         
 2601 00000000         
 2602 00000000         
 2603 00000000         
 2604 00000000         
 2605 00000000         
 2606 00000000         
 2607 00000000         
 2608 00000000         
 2609 00000000         
 2610 00000000         
 2611 00000000         
 2612 00000000         
 2613 00000000         
 2614 00000000         
 2615 00000000         
 2616 00000000         
 2617 00000000         
 2618 00000000         
 2619 00000000         
 2620 00000000         
 2621 00000000         
 2622 00000000         
 2623 00000000         
 2624 00000000         
 2625 00000000         
 2626 00000000         
 2627 00000000         
 2628 00000000         
 2629 00000000         
 2630 00000000         
 2631 00000000         
 2632 00000000         
 2633 00000000         
 2634 00000000         
 2635 00000000         
 2636 00000000         
 2637 00000000         
 2638 00000000         
 2639 00000000         
 2640 00000000         
 2641 00000000         
 2642 00000000         
 2643 00000000         
 2644 00000000         
 2645 00000000         
 2646 00000000         
 2647 00000000         
 2648 00000000         
 2649 00000000         
 2650 00000000         
 2651 00000000         



ARM Macro Assembler    Page 30 


 2652 00000000         
 2653 00000000         
 2654 00000000         
 2655 00000000         
 2656 00000000         
 2657 00000000         
 2658 00000000         
 2659 00000000         
 2660 00000000         
 2661 00000000         
 2662 00000000         
 2663 00000000         
 2664 00000000         
 2665 00000000         
 2666 00000000         
 2667 00000000         
 2668 00000000         
 2669 00000000         
 2670 00000000         
 2671 00000000         
 2672 00000000         
 2673 00000000         
 2674 00000000         
 2675 00000000         
 2676 00000000         
 2677 00000000         
 2678 00000000         
 2679 00000000         
 2680 00000000         
 2681 00000000         
 2682 00000000         
 2683 00000000         
 2684 00000000         
 2685 00000000         
 2686 00000000         
 2687 00000000         
 2688 00000000         
 2689 00000000         
 2690 00000000         
 2691 00000000         #line   2699             "C:\\Users\\trent\\AppData\\Loc
al\\Arm\\Packs\\AnalogDevices\\ADuCM355_DFP\\1.0.3\\ADuCM355\\inc\\ADuCM355_bit
m.h"
 2699 00000000         
 2700 00000000         
 2701 00000000         
 2702 00000000         
 2703 00000000         
 2704 00000000         
 2705 00000000         
 2706 00000000         #line   2720             "C:\\Users\\trent\\AppData\\Loc
al\\Arm\\Packs\\AnalogDevices\\ADuCM355_DFP\\1.0.3\\ADuCM355\\inc\\ADuCM355_bit
m.h"
 2720 00000000         
 2721 00000000         
 2722 00000000         
 2723 00000000         
 2724 00000000         #line   2746             "C:\\Users\\trent\\AppData\\Loc
al\\Arm\\Packs\\AnalogDevices\\ADuCM355_DFP\\1.0.3\\ADuCM355\\inc\\ADuCM355_bit
m.h"



ARM Macro Assembler    Page 31 


 2746 00000000         
 2747 00000000         
 2748 00000000         
 2749 00000000         
 2750 00000000         #line   2757             "C:\\Users\\trent\\AppData\\Loc
al\\Arm\\Packs\\AnalogDevices\\ADuCM355_DFP\\1.0.3\\ADuCM355\\inc\\ADuCM355_bit
m.h"
 2757 00000000         
 2758 00000000         
 2759 00000000         
 2760 00000000         
 2761 00000000         
 2762 00000000         
 2763 00000000         
 2764 00000000         
 2765 00000000         
 2766 00000000         
 2767 00000000         #line   2775             "C:\\Users\\trent\\AppData\\Loc
al\\Arm\\Packs\\AnalogDevices\\ADuCM355_DFP\\1.0.3\\ADuCM355\\inc\\ADuCM355_bit
m.h"
 2775 00000000         
 2776 00000000         
 2777 00000000         
 2778 00000000         
 2779 00000000         
 2780 00000000         
 2781 00000000         
 2782 00000000         
 2783 00000000         
 2784 00000000         
 2785 00000000         
 2786 00000000         
 2787 00000000         #line   2801             "C:\\Users\\trent\\AppData\\Loc
al\\Arm\\Packs\\AnalogDevices\\ADuCM355_DFP\\1.0.3\\ADuCM355\\inc\\ADuCM355_bit
m.h"
 2801 00000000         
 2802 00000000         
 2803 00000000         
 2804 00000000         
 2805 00000000         
 2806 00000000         
 2807 00000000         
 2808 00000000         
 2809 00000000         
 2810 00000000         
 2811 00000000         
 2812 00000000         
 2813 00000000         
 2814 00000000         
 2815 00000000         
 2816 00000000         
 2817 00000000         
 2818 00000000         
 2819 00000000         
 2820 00000000         
 2821 00000000         
 2822 00000000         
 2823 00000000         
 2824 00000000         



ARM Macro Assembler    Page 32 


 2825 00000000         
 2826 00000000         
 2827 00000000         #line   2847             "C:\\Users\\trent\\AppData\\Loc
al\\Arm\\Packs\\AnalogDevices\\ADuCM355_DFP\\1.0.3\\ADuCM355\\inc\\ADuCM355_bit
m.h"
 2847 00000000         
 2848 00000000         
 2849 00000000         
 2850 00000000         
 2851 00000000         #line   2861             "C:\\Users\\trent\\AppData\\Loc
al\\Arm\\Packs\\AnalogDevices\\ADuCM355_DFP\\1.0.3\\ADuCM355\\inc\\ADuCM355_bit
m.h"
 2861 00000000         
 2862 00000000         
 2863 00000000         
 2864 00000000         
 2865 00000000         #line   2875             "C:\\Users\\trent\\AppData\\Loc
al\\Arm\\Packs\\AnalogDevices\\ADuCM355_DFP\\1.0.3\\ADuCM355\\inc\\ADuCM355_bit
m.h"
 2875 00000000         
 2876 00000000         
 2877 00000000         
 2878 00000000         
 2879 00000000         
 2880 00000000         
 2881 00000000         
 2882 00000000         
 2883 00000000         
 2884 00000000         
 2885 00000000         
 2886 00000000         
 2887 00000000         
 2888 00000000         
 2889 00000000         
 2890 00000000         
 2891 00000000         
 2892 00000000         
 2893 00000000         
 2894 00000000         
 2895 00000000         
 2896 00000000         
 2897 00000000         
 2898 00000000         
 2899 00000000         
 2900 00000000         
 2901 00000000         
 2902 00000000         
 2903 00000000         
 2904 00000000         
 2905 00000000         #line   2927             "C:\\Users\\trent\\AppData\\Loc
al\\Arm\\Packs\\AnalogDevices\\ADuCM355_DFP\\1.0.3\\ADuCM355\\inc\\ADuCM355_bit
m.h"
 2927 00000000         
 2928 00000000         
 2929 00000000         
 2930 00000000         
 2931 00000000         
 2932 00000000         
 2933 00000000         



ARM Macro Assembler    Page 33 


 2934 00000000         
 2935 00000000         
 2936 00000000         
 2937 00000000         
 2938 00000000         
 2939 00000000         
 2940 00000000         
 2941 00000000         
 2942 00000000         
 2943 00000000         
 2944 00000000         
 2945 00000000         
 2946 00000000         
 2947 00000000         
 2948 00000000         #line   2980             "C:\\Users\\trent\\AppData\\Loc
al\\Arm\\Packs\\AnalogDevices\\ADuCM355_DFP\\1.0.3\\ADuCM355\\inc\\ADuCM355_bit
m.h"
 2980 00000000         
 2981 00000000         
 2982 00000000         
 2983 00000000         
 2984 00000000         #line   2996             "C:\\Users\\trent\\AppData\\Loc
al\\Arm\\Packs\\AnalogDevices\\ADuCM355_DFP\\1.0.3\\ADuCM355\\inc\\ADuCM355_bit
m.h"
 2996 00000000         
 2997 00000000         
 2998 00000000         
 2999 00000000         
 3000 00000000         
 3001 00000000         
 3002 00000000         
 3003 00000000         
 3004 00000000         
 3005 00000000         
 3006 00000000         
 3007 00000000         
 3008 00000000         
 3009 00000000         
 3010 00000000         
 3011 00000000         
 3012 00000000         
 3013 00000000         
 3014 00000000         
 3015 00000000         
 3016 00000000         
 3017 00000000         
 3018 00000000         
 3019 00000000         
 3020 00000000         
 3021 00000000         
 3022 00000000         
 3023 00000000         
 3024 00000000         
 3025 00000000         
 3026 00000000         
 3027 00000000         
 3028 00000000         
 3029 00000000         
 3030 00000000         



ARM Macro Assembler    Page 34 


 3031 00000000         
 3032 00000000         
 3033 00000000         
 3034 00000000         
 3035 00000000         #line   3045             "C:\\Users\\trent\\AppData\\Loc
al\\Arm\\Packs\\AnalogDevices\\ADuCM355_DFP\\1.0.3\\ADuCM355\\inc\\ADuCM355_bit
m.h"
 3045 00000000         
 3046 00000000         
 3047 00000000         
 3048 00000000         
 3049 00000000         #line   3055             "C:\\Users\\trent\\AppData\\Loc
al\\Arm\\Packs\\AnalogDevices\\ADuCM355_DFP\\1.0.3\\ADuCM355\\inc\\ADuCM355_bit
m.h"
 3055 00000000         
 3056 00000000         
 3057 00000000         
 3058 00000000         
 3059 00000000         #line   3071             "C:\\Users\\trent\\AppData\\Loc
al\\Arm\\Packs\\AnalogDevices\\ADuCM355_DFP\\1.0.3\\ADuCM355\\inc\\ADuCM355_bit
m.h"
 3071 00000000         
 3072 00000000         
 3073 00000000         
 3074 00000000         
 3075 00000000         #line   3087             "C:\\Users\\trent\\AppData\\Loc
al\\Arm\\Packs\\AnalogDevices\\ADuCM355_DFP\\1.0.3\\ADuCM355\\inc\\ADuCM355_bit
m.h"
 3087 00000000         
 3088 00000000         
 3089 00000000         
 3090 00000000         
 3091 00000000         #line   3109             "C:\\Users\\trent\\AppData\\Loc
al\\Arm\\Packs\\AnalogDevices\\ADuCM355_DFP\\1.0.3\\ADuCM355\\inc\\ADuCM355_bit
m.h"
 3109 00000000         
 3110 00000000         
 3111 00000000         
 3112 00000000         
 3113 00000000         
 3114 00000000         
 3115 00000000         
 3116 00000000         
 3117 00000000         
 3118 00000000         
 3119 00000000         
 3120 00000000         
 3121 00000000         
 3122 00000000         
 3123 00000000         
 3124 00000000         
 3125 00000000         
 3126 00000000         
 3127 00000000         
 3128 00000000         
 3129 00000000         #line   3141             "C:\\Users\\trent\\AppData\\Loc
al\\Arm\\Packs\\AnalogDevices\\ADuCM355_DFP\\1.0.3\\ADuCM355\\inc\\ADuCM355_bit
m.h"
 3141 00000000         



ARM Macro Assembler    Page 35 


 3142 00000000         
 3143 00000000         
 3144 00000000         
 3145 00000000         #line   3157             "C:\\Users\\trent\\AppData\\Loc
al\\Arm\\Packs\\AnalogDevices\\ADuCM355_DFP\\1.0.3\\ADuCM355\\inc\\ADuCM355_bit
m.h"
 3157 00000000         
 3158 00000000         
 3159 00000000         
 3160 00000000         
 3161 00000000         #line   3173             "C:\\Users\\trent\\AppData\\Loc
al\\Arm\\Packs\\AnalogDevices\\ADuCM355_DFP\\1.0.3\\ADuCM355\\inc\\ADuCM355_bit
m.h"
 3173 00000000         
 3174 00000000         
 3175 00000000         
 3176 00000000         
 3177 00000000         #line   3185             "C:\\Users\\trent\\AppData\\Loc
al\\Arm\\Packs\\AnalogDevices\\ADuCM355_DFP\\1.0.3\\ADuCM355\\inc\\ADuCM355_bit
m.h"
 3185 00000000         
 3186 00000000         
 3187 00000000         
 3188 00000000         
 3189 00000000         
 3190 00000000         
 3191 00000000         
 3192 00000000         
 3193 00000000         
 3194 00000000         
 3195 00000000         
 3196 00000000         
 3197 00000000         
 3198 00000000         #line   3266             "C:\\Users\\trent\\AppData\\Loc
al\\Arm\\Packs\\AnalogDevices\\ADuCM355_DFP\\1.0.3\\ADuCM355\\inc\\ADuCM355_bit
m.h"
 3266 00000000         
 3267 00000000         
 3268 00000000         
 3269 00000000         
 3270 00000000         
 3271 00000000         
 3272 00000000         
 3273 00000000         
 3274 00000000         
 3275 00000000         
 3276 00000000         
 3277 00000000         
 3278 00000000         
 3279 00000000         
 3280 00000000         
 3281 00000000         
 3282 00000000         
 3283 00000000         
 3284 00000000         
 3285 00000000         
 3286 00000000         
 3287 00000000         
 3288 00000000         



ARM Macro Assembler    Page 36 


 3289 00000000         
 3290 00000000         
 3291 00000000         
 3292 00000000         
 3293 00000000         
 3294 00000000         
 3295 00000000         
 3296 00000000         
 3297 00000000         
 3298 00000000         
 3299 00000000         
 3300 00000000         
 3301 00000000         
 3302 00000000         
 3303 00000000         
 3304 00000000         
 3305 00000000         
 3306 00000000         
 3307 00000000         
 3308 00000000         
 3309 00000000         
 3310 00000000         
 3311 00000000         
 3312 00000000         
 3313 00000000         
 3314 00000000         
 3315 00000000         
 3316 00000000         
 3317 00000000         
 3318 00000000         
 3319 00000000         
 3320 00000000         
 3321 00000000         
 3322 00000000         
 3323 00000000         
 3324 00000000         
 3325 00000000         
 3326 00000000         
 3327 00000000         
 3328 00000000         
 3329 00000000         
 3330 00000000         
 3331 00000000         
 3332 00000000         
 3333 00000000         
 3334 00000000         
 3335 00000000         
 3336 00000000         
 3337 00000000         
 3338 00000000         
 3339 00000000         
 3340 00000000         
 3341 00000000         
 3342 00000000         
 3343 00000000         
 3344 00000000         
 3345 00000000         
 3346 00000000         
 3347 00000000         



ARM Macro Assembler    Page 37 


 3348 00000000         
 3349 00000000         
 3350 00000000         
 3351 00000000         
 3352 00000000         
 3353 00000000         
 3354 00000000         
 3355 00000000         
 3356 00000000         
 3357 00000000         
 3358 00000000         
 3359 00000000         
 3360 00000000         
 3361 00000000         
 3362 00000000         
 3363 00000000         
 3364 00000000         
 3365 00000000         
 3366 00000000         
 3367 00000000         
 3368 00000000         
 3369 00000000         
 3370 00000000         
 3371 00000000         
 3372 00000000         
 3373 00000000         
 3374 00000000         
 3375 00000000         
 3376 00000000         
 3377 00000000         
 3378 00000000         
 3379 00000000         
 3380 00000000         
 3381 00000000         
 3382 00000000         
 3383 00000000         
 3384 00000000         
 3385 00000000         
 3386 00000000         
 3387 00000000         
 3388 00000000         
 3389 00000000         
 3390 00000000         
 3391 00000000         
 3392 00000000         
 3393 00000000         
 3394 00000000         
 3395 00000000         
 3396 00000000         
 3397 00000000         
 3398 00000000         
 3399 00000000         
 3400 00000000         
 3401 00000000         
 3402 00000000         
 3403 00000000         
 3404 00000000         
 3405 00000000         
 3406 00000000         



ARM Macro Assembler    Page 38 


 3407 00000000         
 3408 00000000         
 3409 00000000         
 3410 00000000         
 3411 00000000         
 3412 00000000         
 3413 00000000         
 3414 00000000         
 3415 00000000         
 3416 00000000         
 3417 00000000         
 3418 00000000         
 3419 00000000         
 3420 00000000         
 3421 00000000         
 3422 00000000         
 3423 00000000         
 3424 00000000         
 3425 00000000         
 3426 00000000         
 3427 00000000         
 3428 00000000         
 3429 00000000         
 3430 00000000         
 3431 00000000         
 3432 00000000         
 3433 00000000         
 3434 00000000         
 3435 00000000         
 3436 00000000         
 3437 00000000         
 3438 00000000         
 3439 00000000         
 3440 00000000         
 3441 00000000         
 3442 00000000         
 3443 00000000         
 3444 00000000         
 3445 00000000         
 3446 00000000         
 3447 00000000         
 3448 00000000         
 3449 00000000         
 3450 00000000         
 3451 00000000         
 3452 00000000         
 3453 00000000         
 3454 00000000         
 3455 00000000         
 3456 00000000         
 3457 00000000         
 3458 00000000         
 3459 00000000         
 3460 00000000         
 3461 00000000         
 3462 00000000         
 3463 00000000         
 3464 00000000         
 3465 00000000         



ARM Macro Assembler    Page 39 


 3466 00000000         
 3467 00000000         
 3468 00000000         
 3469 00000000         
 3470 00000000         
 3471 00000000         
 3472 00000000         
 3473 00000000         
 3474 00000000         
 3475 00000000         
 3476 00000000         
 3477 00000000         
 3478 00000000         
 3479 00000000         
 3480 00000000         
 3481 00000000         
 3482 00000000         
 3483 00000000         
 3484 00000000         
 3485 00000000         
 3486 00000000         
 3487 00000000         
 3488 00000000         
 3489 00000000         
 3490 00000000         
 3491 00000000         
 3492 00000000         
 3493 00000000         
 3494 00000000         
 3495 00000000         
 3496 00000000         
 3497 00000000         
 3498 00000000         
 3499 00000000         
 3500 00000000         
 3501 00000000         
 3502 00000000         
 3503 00000000         
 3504 00000000         
 3505 00000000         
 3506 00000000         
 3507 00000000         
 3508 00000000         
 3509 00000000         
 3510 00000000         
 3511 00000000         
 3512 00000000         
 3513 00000000         
 3514 00000000         
 3515 00000000         
 3516 00000000         
 3517 00000000         
 3518 00000000         
 3519 00000000         
 3520 00000000         
 3521 00000000         
 3522 00000000         
 3523 00000000         
 3524 00000000         



ARM Macro Assembler    Page 40 


 3525 00000000         
 3526 00000000         
 3527 00000000         
 3528 00000000         
 3529 00000000         
 3530 00000000         
 3531 00000000         
 3532 00000000         
 3533 00000000         
 3534 00000000         
 3535 00000000         
 3536 00000000         
 3537 00000000         
 3538 00000000         
 3539 00000000         
 3540 00000000         
 3541 00000000         
 3542 00000000         
 3543 00000000         
 3544 00000000         
 3545 00000000         
 3546 00000000         
 3547 00000000         
 3548 00000000         
 3549 00000000         
 3550 00000000         
 3551 00000000         
 3552 00000000         
 3553 00000000         
 3554 00000000         
 3555 00000000         
 3556 00000000         
 3557 00000000         
 3558 00000000         
 3559 00000000         
 3560 00000000         
 3561 00000000         
 3562 00000000         
 3563 00000000         
 3564 00000000         
 3565 00000000         
 3566 00000000         
 3567 00000000         
 3568 00000000         
 3569 00000000         
 3570 00000000         
 3571 00000000         
 3572 00000000         
 3573 00000000         
 3574 00000000         
 3575 00000000         
 3576 00000000         
 3577 00000000         
 3578 00000000         
 3579 00000000         
 3580 00000000         
 3581 00000000         
 3582 00000000         
 3583 00000000         



ARM Macro Assembler    Page 41 


 3584 00000000         
 3585 00000000         
 3586 00000000         
 3587 00000000         
 3588 00000000         
 3589 00000000         
 3590 00000000         
 3591 00000000         
 3592 00000000         
 3593 00000000         
 3594 00000000         
 3595 00000000         
 3596 00000000         
 3597 00000000         
 3598 00000000         
 3599 00000000         
 3600 00000000         
 3601 00000000         
 3602 00000000         
 3603 00000000         
 3604 00000000         
 3605 00000000         
 3606 00000000         
 3607 00000000         
 3608 00000000         
 3609 00000000         
 3610 00000000         
 3611 00000000         
 3612 00000000         
 3613 00000000         
 3614 00000000         
 3615 00000000         
 3616 00000000         
 3617 00000000         
 3618 00000000         
 3619 00000000         
 3620 00000000         
 3621 00000000         
 3622 00000000         
 3623 00000000         
 3624 00000000         
 3625 00000000         
 3626 00000000         
 3627 00000000         
 3628 00000000         
 3629 00000000         
 3630 00000000         
 3631 00000000         
 3632 00000000         
 3633 00000000         
 3634 00000000         
 3635 00000000         
 3636 00000000         
 3637 00000000         
 3638 00000000         
 3639 00000000         
 3640 00000000         
 3641 00000000         
 3642 00000000         



ARM Macro Assembler    Page 42 


 3643 00000000         
 3644 00000000         
 3645 00000000         
 3646 00000000         
 3647 00000000         
 3648 00000000         
 3649 00000000         
 3650 00000000         
 3651 00000000         
 3652 00000000         
 3653 00000000         
 3654 00000000         
 3655 00000000         
 3656 00000000         
 3657 00000000         
 3658 00000000         
 3659 00000000         
 3660 00000000         
 3661 00000000         
 3662 00000000         
 3663 00000000         
 3664 00000000         
 3665 00000000         
 3666 00000000         
 3667 00000000         
 3668 00000000         
 3669 00000000         
 3670 00000000         
 3671 00000000         
 3672 00000000         
 3673 00000000         
 3674 00000000         
 3675 00000000         
 3676 00000000         
 3677 00000000         
 3678 00000000         
 3679 00000000         
 3680 00000000         
 3681 00000000         
 3682 00000000         
 3683 00000000         #line   3750             "C:\\Users\\trent\\AppData\\Loc
al\\Arm\\Packs\\AnalogDevices\\ADuCM355_DFP\\1.0.3\\ADuCM355\\inc\\ADuCM355_bit
m.h"
 3750 00000000         
 3751 00000000         
 3752 00000000         
 3753 00000000         
 3754 00000000         
 3755 00000000         
 3756 00000000         #line   31               "RTE\\Device\\ADuCM355\\startup
_ADuCM355.s"
   31 00000000         
   32 00000000         ; ISRAM is enabled by default and can be disabled by usi
                       ng the following macro.
   33 00000000         ; ISRAM must be disabled here when using SRAM MODES 2 or
                        3.
   34 00000000         
   35 00000000         ;
   36 00000000         



ARM Macro Assembler    Page 43 


   37 00000000         
   38 00000000         
   39 00000000         
   40 00000000         
   41 00000000         
   42 00000000         
   43 00000000         
   44 00000000         
   45 00000000         ; <h> Stack Configuration
   46 00000000         ;   <o> Stack Size (in Bytes) <0x0-0xFFFFFFFF:8>
   47 00000000         ; </h>
   48 00000000         
   49 00000000 00000400 
                       Stack_Size
                               EQU              0x00000400
   50 00000000         
   51 00000000                 AREA             STACK, NOINIT, READWRITE, ALIGN
=3
   52 00000000         Stack_Mem
                               SPACE            Stack_Size
   53 00000400         __initial_sp
   54 00000400         
   55 00000400         
   56 00000400         ; <h> Heap Configuration
   57 00000400         ;   <o>  Heap Size (in Bytes) <0x0-0xFFFFFFFF:8>
   58 00000400         ; </h>
   59 00000400         
   60 00000400 00000C00 
                       Heap_Size
                               EQU              0x00000C00
   61 00000400         
   62 00000400                 AREA             HEAP, NOINIT, READWRITE, ALIGN=
3
   63 00000000         __heap_base
   64 00000000         Heap_Mem
                               SPACE            Heap_Size
   65 00000C00         __heap_limit
   66 00000C00         
   67 00000C00         
   68 00000C00                 PRESERVE8
   69 00000C00                 THUMB
   70 00000C00         
   71 00000C00         
   72 00000C00         ; Vector Table Mapped to Address 0 at Reset
   73 00000C00         
   74 00000C00                 AREA             RESET, DATA, READONLY
   75 00000000                 EXPORT           __vector_table
   76 00000000                 EXPORT           __vector_table_End
   77 00000000                 EXPORT           __vector_table_Size
   78 00000000         
   79 00000000 00000000 
                       __vector_table
                               DCD              __initial_sp ; Top of Stack
   80 00000004 00000000        DCD              Reset_Handler ; Reset Handler
   81 00000008 00000000        DCD              NmiSR       ; NMI Handler
   82 0000000C 00000000        DCD              HardFault_Handler ; Hard Fault 
                                                            Handler
   83 00000010 00000000        DCD              MemManage_Handler 
                                                            ; MPU Fault Handler



ARM Macro Assembler    Page 44 


                                                            
   84 00000014 00000000        DCD              BusFault_Handler 
                                                            ; Bus Fault Handler
                                                            
   85 00000018 00000000        DCD              UsageFault_Handler ; Usage Faul
                                                            t Handler
   86 0000001C 00000000        DCD              0           ; Reserved
   87 00000020 00000000        DCD              0           ; Reserved
   88 00000024 00000000        DCD              0           ; Reserved
   89 00000028 00000000        DCD              0           ; Reserved
   90 0000002C 00000000        DCD              SVC_Handler ; SVCall Handler
   91 00000030 00000000        DCD              DebugMon_Handler ; Debug Monito
                                                            r Handler
   92 00000034 00000000        DCD              0           ; Reserved
   93 00000038 00000000        DCD              PENDSV_HANDLER ; PendSV Handler
                                                            
   94 0000003C 00000000        DCD              SysTick_Handler 
                                                            ; SysTick Handler
   95 00000040         
   96 00000040         ; External Interrupts
   97 00000040 00000000        DCD              RTC1_Int_Handler ; Real Time Cl
                                                            ock 1          
   98 00000044 00000000        DCD              Ext_Int0_Handler ; External Int
                                                            errupt 0       
   99 00000048 00000000        DCD              Ext_Int1_Handler ; External Int
                                                            errupt 1       
  100 0000004C 00000000        DCD              Ext_Int2_Handler ; External Int
                                                            errupt 2       
  101 00000050 00000000        DCD              Afe_Int3_Handler ; External Int
                                                            errupt 3       
  102 00000054 00000000        DCD              WDog_Tmr_Int_Handler ; Watchdog
                                                             Timer             
                                                            
  103 00000058 00000000        DCD              Vreg_over_Int_Handler ; VREG Ov
                                                            er                 
                                                             
  104 0000005C 00000000        DCD              Battery_Voltage_Int_Handler ; B
                                                            attery Voltage Rang
                                                            e      
  105 00000060 00000000        DCD              RTC0_Int_Handler ; Real Time Cl
                                                            ock 0          
  106 00000064 00000000        DCD              GPIO_A_Int_Handler ; GPIO Int A
                                                                             
  107 00000068 00000000        DCD              GPIO_B_Int_Handler ; GPIO Int B
                                                                             
  108 0000006C 00000000        DCD              GP_Tmr0_Int_Handler ; GP Timer 
                                                            0                 
  109 00000070 00000000        DCD              GP_Tmr1_Int_Handler ; GP Timer 
                                                            1                 
  110 00000074 00000000        DCD              Flash0_Int_Handler ; Flash Cont
                                                            roller           
  111 00000078 00000000        DCD              UART_Int_Handler ; UART0       
                                                                           
  112 0000007C 00000000        DCD              SPI0_Int_Handler ; SPI0        
                                                                           
  113 00000080 00000000        DCD              SPI1_Int_Handler ; SPI-H       
                                                                           
  114 00000084 00000000        DCD              I2C0_Slave_Int_Handler ; I2C0 S
                                                            lave               



ARM Macro Assembler    Page 45 


                                                              
  115 00000088 00000000        DCD              I2C0_Master_Int_Handler ; I2C0 
                                                            Master             
                                                               
  116 0000008C 00000000        DCD              DMA_Err_Int_Handler ; DMA Error
                                                                              
  117 00000090 00000000        DCD              DMA_SPI1_TX_Int_Handler ; DMA C
                                                            hannel 0 Done      
                                                               
  118 00000094 00000000        DCD              DMA_SPI1_RX_Int_Handler ; DMA C
                                                            hannel 1 Done      
                                                               
  119 00000098 00000000        DCD              0           ; Reserved         
                                                                      
  120 0000009C 00000000        DCD              0           ; Reserved         
                                                                      
  121 000000A0 00000000        DCD              DMA_SPI0_TX_Int_Handler ; DMA C
                                                            hannel 4 Done      
                                                               
  122 000000A4 00000000        DCD              DMA_SPI0_RX_Int_Handler ; DMA C
                                                            hannel 5 Done      
                                                               
  123 000000A8 00000000        DCD              0           ; Reserved         
                                                                      
  124 000000AC 00000000        DCD              0           ; Reserved         
                                                                      
  125 000000B0 00000000        DCD              DMA_UART_TX_Int_Handler ; DMA C
                                                            hannel 8 Done      
                                                               
  126 000000B4 00000000        DCD              DMA_UART_RX_Int_Handler ; DMA C
                                                            hannel 9 Done      
                                                               
  127 000000B8 00000000        DCD              DMA_I2C0_STX_Int_Handler ; DMA 
                                                            Channel 10 Done    
                                                                
  128 000000BC 00000000        DCD              DMA_I2C0_SRX_Int_Handler ; DMA 
                                                            Channel 11 Done    
                                                                
  129 000000C0 00000000        DCD              DMA_I2C0_MX_Int_Handler ; DMA C
                                                            hannel 12 Done     
                                                               
  130 000000C4 00000000        DCD              DMA_AES0_IN_Int_Handler ; DMA C
                                                            hannel 13 Done     
                                                               
  131 000000C8 00000000        DCD              DMA_AES0_OUT_Int_Handler ; DMA 
                                                            Channel 14 Done    
                                                                
  132 000000CC 00000000        DCD              DMA_FLASH0_Int_Handler ; DMA Ch
                                                            annel 15 Done      
                                                              
  133 000000D0 00000000        DCD              0           ; Reserved         
                                                                      
  134 000000D4 00000000        DCD              0           ; Reserved         
                                                                      
  135 000000D8 00000000        DCD              Crypto_Int_Handler ; Crypto    
                                                                             
  136 000000DC 00000000        DCD              DMA_ADC0_Int_Handler ; DMA Chan
                                                            nel 24 Done        
                                                            



ARM Macro Assembler    Page 46 


  137 000000E0 00000000        DCD              GP_Tmr2_Int_Handler ; GP Timer 
                                                            2                 
  138 000000E4 00000000        DCD              0           ; Reserved         
                                                                      
  139 000000E8 00000000        DCD              0           ; Reserved         
                                                                      
  140 000000EC 00000000        DCD              PLL_Int_Handler ; PLL          
                                                                          
  141 000000F0 00000000        DCD              RNG_Int_Handler ; Nandom Number
                                                             Generator    
  142 000000F4 00000000        DCD              0           ; Reserved         
                                                                      
  143 000000F8 00000000        DCD              ADC_Int_Handler ; ADC          
                                                                          
  144 000000FC 00000000        DCD              AfeError_Int_Handler ;         
                                                                               
                                                            
  145 00000100 00000000        DCD              AfeAdc_Int_Handler ;           
                                                                             
  146 00000104 00000000        DCD              AfeGeneral_Int_Handler ;       
                                                                               
                                                              
  147 00000108 00000000        DCD              AfeCMDFifo_Int_Handler ;       
                                                                               
                                                              
  148 0000010C 00000000        DCD              AfeDATAFifo_Int_Handler ;      
                                                                               
                                                               
  149 00000110 00000000        DCD              AfeWdt_Int_Handler ;           
                                                                             
  150 00000114 00000000        DCD              AfeCrcError_Int_Handler ;      
                                                                               
                                                               
  151 00000118 00000000        DCD              AfeGpTimer0_Int_Handler ;      
                                                                               
                                                               
  152 0000011C 00000000        DCD              AfeGpTimer1_Int_Handler ;      
                                                                               
                                                               
  153 00000120 00000000        DCD              DMA_AfeCMDFifo_Int_Handler ; DM
                                                            A Channel 16 Done (
                                                            SIP)  
  154 00000124 00000000        DCD              DMA_AfeDATAFifo_Int_Handler ; D
                                                            MA Channel 17 Done 
                                                            (SIP)  
  155 00000128 00000000        DCD              DMA_SIP2_Int_Handler ; DMA Chan
                                                            nel 18 Done (SIP)  
                                                            
  156 0000012C 00000000        DCD              DMA_SIP3_Int_Handler ; DMA Chan
                                                            nel 19 Done (SIP)  
                                                            
  157 00000130 00000000        DCD              DMA_SIP4_Int_Handler ; DMA Chan
                                                            nel 20 Done (SIP)  
                                                            
  158 00000134 00000000        DCD              DMA_SIP5_Int_Handler ; DMA Chan
                                                            nel 21 Done (SIP)  
                                                            
  159 00000138 00000000        DCD              DMA_SIP6_Int_Handler ; DMA Chan
                                                            nel 22 Done (SIP)  



ARM Macro Assembler    Page 47 


                                                            
  160 0000013C 00000000        DCD              DMA_SIP7_Int_Handler ; DMA Chan
                                                            nel 23 Done (SIP)  
                                                            
  161 00000140 00000000        DCD              0           ; Reserved         
                                                                      
  162 00000144         __vector_table_End
  163 00000144         
  164 00000144 00000144 
                       __vector_table_Size
                               EQU              __vector_table_End - __vector_t
able
  165 00000144         
  166 00000144                 AREA             |.ARM.__at_0x180|, CODE, READON
LY
  167 00000000 FFFFFFFF        DCD              0xFFFFFFFF  ; ReadProtectKeyHas
                                                            h
  168 00000004 FFFFFFFF        DCD              0xFFFFFFFF  ; ReadProtectKeyHas
                                                            h
  169 00000008 FFFFFFFF        DCD              0xFFFFFFFF  ; ReadProtectKeyHas
                                                            h
  170 0000000C FFFFFFFF        DCD              0xFFFFFFFF  ; ReadProtectKeyHas
                                                            h
  171 00000010 A79C3203        DCD              0xA79C3203  ; CrcOfReadProtectK
                                                            eyHash
  172 00000014 00000000        DCD              0x00000000  ; LastCRCPage
  173 00000018 FFFFFFFF        DCD              0xFFFFFFFF  ; InCircuitWritePro
                                                            tectCode
  174 0000001C FFFFFFFF        DCD              0xFFFFFFFF  ; FlashBlockWritePr
                                                            otect
  175 00000020         
  176 00000020                 AREA             |.ARM.__at_0x7FC|, CODE, READON
LY
  177 00000000 FFFFFFFF        DCD              0xFFFFFFFF  ; LastCRCPage
  178 00000004         
  179 00000004         
  180 00000004         
  181 00000004         
  182 00000004         
  183 00000004         
  184 00000004         
  185 00000004         
  186 00000004         
  187 00000004                 AREA             |.text|, CODE, READONLY
  188 00000000         
  189 00000000         
  190 00000000         ; Reset Handler
  191 00000000         
  192 00000000         Reset_Handler
                               PROC
  193 00000000                 EXPORT           Reset_Handler             [WEAK
]
  194 00000000                 IMPORT           SystemInit
  195 00000000                 IMPORT           __main
  196 00000000         
  197 00000000         ; Disable ISRAM before we access the stack or any data 
  198 00000000         
  199 00000000         ; Load the SRAM control register 
  200 00000000 490C            LDR              R1, =0x4004C260 ;             



ARM Macro Assembler    Page 48 


  201 00000002 6808            LDR              R0, [R1]    ;
  202 00000004         ; Clear the ISRAM enable bit 
  203 00000004 F020 4000       BIC              R0, R0, # ((0x80000000)) ; 
  204 00000008         ; Store ->  ISRAM memory can now be used as data. 
  205 00000008 6008            STR              R0, [R1]    ;                  
                                                                       
  206 0000000A         
  207 0000000A 480B            LDR              R0, =SystemInit
  208 0000000C 4780            BLX              R0
  209 0000000E 480B            LDR              R0, =__main
  210 00000010 4700            BX               R0
  211 00000012                 ENDP
  212 00000012         
  213 00000012         
  214 00000012         ; Dummy Exception Handlers (infinite loops which can be 
                       modified)
  215 00000012         
  216 00000012         NmiSR   PROC
  217 00000012                 EXPORT           NmiSR               [WEAK]
  218 00000012 E7FE            B                .
  219 00000014                 ENDP
  220 00000014         HardFault_Handler
                               PROC
  221 00000014         
  222 00000014                 EXPORT           HardFault_Handler         [WEAK
]
  223 00000014 E7FE            B                .
  224 00000016                 ENDP
  225 00000016         MemManage_Handler
                               PROC
  226 00000016         
  227 00000016                 EXPORT           MemManage_Handler         [WEAK
]
  228 00000016 E7FE            B                .
  229 00000018                 ENDP
  230 00000018         BusFault_Handler
                               PROC
  231 00000018         
  232 00000018                 EXPORT           BusFault_Handler          [WEAK
]
  233 00000018 E7FE            B                .
  234 0000001A                 ENDP
  235 0000001A         UsageFault_Handler
                               PROC
  236 0000001A         
  237 0000001A                 EXPORT           UsageFault_Handler        [WEAK
]
  238 0000001A E7FE            B                .
  239 0000001C                 ENDP
  240 0000001C         SVC_Handler
                               PROC
  241 0000001C                 EXPORT           SVC_Handler               [WEAK
]
  242 0000001C E7FE            B                .
  243 0000001E                 ENDP
  244 0000001E         DebugMon_Handler
                               PROC
  245 0000001E         
  246 0000001E                 EXPORT           DebugMon_Handler          [WEAK



ARM Macro Assembler    Page 49 


]
  247 0000001E E7FE            B                .
  248 00000020                 ENDP
  249 00000020         PENDSV_HANDLER
                               PROC
  250 00000020                 EXPORT           PENDSV_HANDLER            [WEAK
]
  251 00000020 E7FE            B                .
  252 00000022                 ENDP
  253 00000022         SysTick_Handler
                               PROC
  254 00000022                 EXPORT           SysTick_Handler           [WEAK
]
  255 00000022 E7FE            B                .
  256 00000024                 ENDP
  257 00000024         
  258 00000024         Default_Handler
                               PROC
  259 00000024         
  260 00000024                 EXPORT           RTC1_Int_Handler            [WE
AK]
  261 00000024                 EXPORT           Ext_Int0_Handler            [WE
AK]
  262 00000024                 EXPORT           Ext_Int1_Handler            [WE
AK]
  263 00000024                 EXPORT           Ext_Int2_Handler            [WE
AK]
  264 00000024                 EXPORT           Afe_Int3_Handler            [WE
AK]
  265 00000024                 EXPORT           WDog_Tmr_Int_Handler        [WE
AK]
  266 00000024                 EXPORT           Vreg_over_Int_Handler       [WE
AK]
  267 00000024                 EXPORT           Battery_Voltage_Int_Handler [WE
AK]
  268 00000024                 EXPORT           RTC0_Int_Handler            [WE
AK]
  269 00000024                 EXPORT           GPIO_A_Int_Handler          [WE
AK]
  270 00000024                 EXPORT           GPIO_B_Int_Handler          [WE
AK]
  271 00000024                 EXPORT           GP_Tmr0_Int_Handler         [WE
AK]
  272 00000024                 EXPORT           GP_Tmr1_Int_Handler         [WE
AK]
  273 00000024                 EXPORT           Flash0_Int_Handler          [WE
AK]
  274 00000024                 EXPORT           UART_Int_Handler            [WE
AK]
  275 00000024                 EXPORT           SPI0_Int_Handler            [WE
AK]
  276 00000024                 EXPORT           SPI1_Int_Handler            [WE
AK]
  277 00000024                 EXPORT           I2C0_Slave_Int_Handler      [WE
AK]
  278 00000024                 EXPORT           I2C0_Master_Int_Handler     [WE
AK]
  279 00000024                 EXPORT           DMA_Err_Int_Handler         [WE
AK]



ARM Macro Assembler    Page 50 


  280 00000024                 EXPORT           DMA_SPI0_TX_Int_Handler     [WE
AK]
  281 00000024                 EXPORT           DMA_SPI0_RX_Int_Handler     [WE
AK]
  282 00000024                 EXPORT           DMA_SPI1_TX_Int_Handler     [WE
AK]
  283 00000024                 EXPORT           DMA_SPI1_RX_Int_Handler     [WE
AK]
  284 00000024                 EXPORT           DMA_UART_TX_Int_Handler     [WE
AK]
  285 00000024                 EXPORT           DMA_UART_RX_Int_Handler     [WE
AK]
  286 00000024                 EXPORT           DMA_I2C0_STX_Int_Handler    [WE
AK]
  287 00000024                 EXPORT           DMA_I2C0_SRX_Int_Handler    [WE
AK]
  288 00000024                 EXPORT           DMA_I2C0_MX_Int_Handler     [WE
AK]
  289 00000024                 EXPORT           DMA_AES0_IN_Int_Handler     [WE
AK]
  290 00000024                 EXPORT           DMA_AES0_OUT_Int_Handler    [WE
AK]
  291 00000024                 EXPORT           DMA_FLASH0_Int_Handler      [WE
AK]
  292 00000024                 EXPORT           Crypto_Int_Handler          [WE
AK]
  293 00000024                 EXPORT           DMA_ADC0_Int_Handler        [WE
AK]
  294 00000024                 EXPORT           GP_Tmr2_Int_Handler         [WE
AK]
  295 00000024                 EXPORT           PLL_Int_Handler             [WE
AK]
  296 00000024                 EXPORT           RNG_Int_Handler             [WE
AK]
  297 00000024                 EXPORT           ADC_Int_Handler             [WE
AK]
  298 00000024                 EXPORT           DMA_AfeCMDFifo_Int_Handler  [WE
AK]
  299 00000024                 EXPORT           DMA_AfeDATAFifo_Int_Handler [WE
AK]
  300 00000024                 EXPORT           DMA_SIP2_Int_Handler        [WE
AK]
  301 00000024                 EXPORT           DMA_SIP3_Int_Handler        [WE
AK]
  302 00000024                 EXPORT           DMA_SIP4_Int_Handler        [WE
AK]
  303 00000024                 EXPORT           DMA_SIP5_Int_Handler        [WE
AK]
  304 00000024                 EXPORT           DMA_SIP6_Int_Handler        [WE
AK]
  305 00000024                 EXPORT           DMA_SIP7_Int_Handler        [WE
AK]
  306 00000024                 EXPORT           AfeError_Int_Handler        [WE
AK]
  307 00000024                 EXPORT           AfeAdc_Int_Handler          [WE
AK]
  308 00000024                 EXPORT           AfeGeneral_Int_Handler      [WE
AK]
  309 00000024                 EXPORT           AfeCMDFifo_Int_Handler      [WE



ARM Macro Assembler    Page 51 


AK]
  310 00000024                 EXPORT           AfeDATAFifo_Int_Handler     [WE
AK]
  311 00000024                 EXPORT           AfeWdt_Int_Handler          [WE
AK]
  312 00000024                 EXPORT           AfeCrcError_Int_Handler     [WE
AK]
  313 00000024                 EXPORT           AfeGpTimer0_Int_Handler     [WE
AK]
  314 00000024                 EXPORT           AfeGpTimer1_Int_Handler     [WE
AK]
  315 00000024         
  316 00000024         RTC1_Int_Handler
  317 00000024         Ext_Int0_Handler
  318 00000024         Ext_Int1_Handler
  319 00000024         Ext_Int2_Handler
  320 00000024         Afe_Int3_Handler
  321 00000024         WDog_Tmr_Int_Handler
  322 00000024         Vreg_over_Int_Handler
  323 00000024         Battery_Voltage_Int_Handler
  324 00000024         RTC0_Int_Handler
  325 00000024         GPIO_A_Int_Handler
  326 00000024         GPIO_B_Int_Handler
  327 00000024         GP_Tmr0_Int_Handler
  328 00000024         GP_Tmr1_Int_Handler
  329 00000024         Flash0_Int_Handler
  330 00000024         UART_Int_Handler
  331 00000024         SPI0_Int_Handler
  332 00000024         SPI1_Int_Handler
  333 00000024         I2C0_Slave_Int_Handler
  334 00000024         I2C0_Master_Int_Handler
  335 00000024         DMA_Err_Int_Handler
  336 00000024         DMA_SPI0_TX_Int_Handler
  337 00000024         DMA_SPI0_RX_Int_Handler
  338 00000024         DMA_SPI1_TX_Int_Handler
  339 00000024         DMA_SPI1_RX_Int_Handler
  340 00000024         DMA_UART_TX_Int_Handler
  341 00000024         DMA_UART_RX_Int_Handler
  342 00000024         DMA_I2C0_STX_Int_Handler
  343 00000024         DMA_I2C0_SRX_Int_Handler
  344 00000024         DMA_I2C0_MX_Int_Handler
  345 00000024         DMA_AES0_IN_Int_Handler
  346 00000024         DMA_AES0_OUT_Int_Handler
  347 00000024         DMA_FLASH0_Int_Handler
  348 00000024         Crypto_Int_Handler
  349 00000024         DMA_ADC0_Int_Handler
  350 00000024         GP_Tmr2_Int_Handler
  351 00000024         PLL_Int_Handler
  352 00000024         RNG_Int_Handler
  353 00000024         ADC_Int_Handler
  354 00000024         DMA_AfeCMDFifo_Int_Handler
  355 00000024         DMA_AfeDATAFifo_Int_Handler
  356 00000024         DMA_SIP2_Int_Handler
  357 00000024         DMA_SIP3_Int_Handler
  358 00000024         DMA_SIP4_Int_Handler
  359 00000024         DMA_SIP5_Int_Handler
  360 00000024         DMA_SIP6_Int_Handler
  361 00000024         DMA_SIP7_Int_Handler
  362 00000024         AfeError_Int_Handler



ARM Macro Assembler    Page 52 


  363 00000024         AfeAdc_Int_Handler
  364 00000024         AfeGeneral_Int_Handler
  365 00000024         AfeCMDFifo_Int_Handler
  366 00000024         AfeDATAFifo_Int_Handler
  367 00000024         AfeWdt_Int_Handler
  368 00000024         AfeCrcError_Int_Handler
  369 00000024         AfeGpTimer0_Int_Handler
  370 00000024         AfeGpTimer1_Int_Handler
  371 00000024 E7FE            B                .
  372 00000026         
  373 00000026                 ENDP
  374 00000026         
  375 00000026         
  376 00000026 00 00           ALIGN
  377 00000028         
  378 00000028         
  379 00000028         ; User Initial Stack & Heap
  380 00000028         
  381 00000028                 IF               :DEF:__MICROLIB
  388 00000028         
  389 00000028                 IMPORT           __use_two_region_memory
  390 00000028                 EXPORT           __user_initial_stackheap
  391 00000028         
  392 00000028         __user_initial_stackheap
                               PROC
  393 00000028 4805            LDR              R0, =  Heap_Mem
  394 0000002A 4906            LDR              R1, =(Stack_Mem + Stack_Size)
  395 0000002C 4A06            LDR              R2, = (Heap_Mem +  Heap_Size)
  396 0000002E 4B07            LDR              R3, = Stack_Mem
  397 00000030 4770            BX               LR
  398 00000032                 ENDP
  399 00000032         
  400 00000032 00 00           ALIGN
  401 00000034         
  402 00000034                 ENDIF
  403 00000034         
  404 00000034         
  405 00000034                 END
              4004C260 
              00000000 
              00000000 
              00000000 
              00000400 
              00000C00 
              00000000 
Command Line: --debug --xref --cpreproc --diag_suppress=9931 --cpu=Cortex-M3 --
apcs=interwork --depend=.\objects\m355_temperature\startup_aducm355.d -o.\objec
ts\m355_temperature\startup_aducm355.o -I.\RTE\Device\ADuCM355 -I.\RTE\_ADuCM35
5 -IC:\Users\trent\AppData\Local\Arm\Packs\ARM\CMSIS\5.7.0\CMSIS\Core\Include -
IC:\Users\trent\AppData\Local\Arm\Packs\AnalogDevices\ADuCM355_DFP\1.0.3\ADuCM3
55\common -IC:\Users\trent\AppData\Local\Arm\Packs\AnalogDevices\ADuCM355_DFP\1
.0.3\ADuCM355\common\ad5940lib -IC:\Users\trent\AppData\Local\Arm\Packs\AnalogD
evices\ADuCM355_DFP\1.0.3\ADuCM355\inc --predefine="__EVAL SETA 1" --predefine=
"__UVISION_VERSION SETA 531" --predefine="_RTE_ SETA 1" --predefine="_RTE_ SETA
 1" --cpreproc_opts=-U__STDC__,-D__ASSEMBLER__ --list=.\listings\startup_aducm3
55.lst RTE\Device\ADuCM355\startup_ADuCM355.s



ARM Macro Assembler    Page 1 Alphabetic symbol ordering
Relocatable symbols

STACK 00000000

Symbol: STACK
   Definitions
      At line 51 in file RTE\\Device\\ADuCM355\\startup_ADuCM355.s
   Uses
      None
Comment: STACK unused
Stack_Mem 00000000

Symbol: Stack_Mem
   Definitions
      At line 52 in file RTE\\Device\\ADuCM355\\startup_ADuCM355.s
   Uses
      At line 394 in file RTE\\Device\\ADuCM355\\startup_ADuCM355.s
      At line 396 in file RTE\\Device\\ADuCM355\\startup_ADuCM355.s

__initial_sp 00000400

Symbol: __initial_sp
   Definitions
      At line 53 in file RTE\\Device\\ADuCM355\\startup_ADuCM355.s
   Uses
      At line 79 in file RTE\\Device\\ADuCM355\\startup_ADuCM355.s
Comment: __initial_sp used once
3 symbols



ARM Macro Assembler    Page 1 Alphabetic symbol ordering
Relocatable symbols

HEAP 00000000

Symbol: HEAP
   Definitions
      At line 62 in file RTE\\Device\\ADuCM355\\startup_ADuCM355.s
   Uses
      None
Comment: HEAP unused
Heap_Mem 00000000

Symbol: Heap_Mem
   Definitions
      At line 64 in file RTE\\Device\\ADuCM355\\startup_ADuCM355.s
   Uses
      At line 393 in file RTE\\Device\\ADuCM355\\startup_ADuCM355.s
      At line 395 in file RTE\\Device\\ADuCM355\\startup_ADuCM355.s

__heap_base 00000000

Symbol: __heap_base
   Definitions
      At line 63 in file RTE\\Device\\ADuCM355\\startup_ADuCM355.s
   Uses
      None
Comment: __heap_base unused
__heap_limit 00000C00

Symbol: __heap_limit
   Definitions
      At line 65 in file RTE\\Device\\ADuCM355\\startup_ADuCM355.s
   Uses
      None
Comment: __heap_limit unused
4 symbols



ARM Macro Assembler    Page 1 Alphabetic symbol ordering
Relocatable symbols

RESET 00000000

Symbol: RESET
   Definitions
      At line 74 in file RTE\\Device\\ADuCM355\\startup_ADuCM355.s
   Uses
      None
Comment: RESET unused
__vector_table 00000000

Symbol: __vector_table
   Definitions
      At line 79 in file RTE\\Device\\ADuCM355\\startup_ADuCM355.s
   Uses
      At line 75 in file RTE\\Device\\ADuCM355\\startup_ADuCM355.s
      At line 164 in file RTE\\Device\\ADuCM355\\startup_ADuCM355.s

__vector_table_End 00000144

Symbol: __vector_table_End
   Definitions
      At line 162 in file RTE\\Device\\ADuCM355\\startup_ADuCM355.s
   Uses
      At line 76 in file RTE\\Device\\ADuCM355\\startup_ADuCM355.s
      At line 164 in file RTE\\Device\\ADuCM355\\startup_ADuCM355.s

3 symbols



ARM Macro Assembler    Page 1 Alphabetic symbol ordering
Relocatable symbols

.ARM.__at_0x180 00000000

Symbol: .ARM.__at_0x180
   Definitions
      At line 166 in file RTE\\Device\\ADuCM355\\startup_ADuCM355.s
   Uses
      None
Comment: .ARM.__at_0x180 unused
1 symbol



ARM Macro Assembler    Page 1 Alphabetic symbol ordering
Relocatable symbols

.ARM.__at_0x7FC 00000000

Symbol: .ARM.__at_0x7FC
   Definitions
      At line 176 in file RTE\\Device\\ADuCM355\\startup_ADuCM355.s
   Uses
      None
Comment: .ARM.__at_0x7FC unused
1 symbol



ARM Macro Assembler    Page 1 Alphabetic symbol ordering
Relocatable symbols

.text 00000000

Symbol: .text
   Definitions
      At line 187 in file RTE\\Device\\ADuCM355\\startup_ADuCM355.s
   Uses
      None
Comment: .text unused
ADC_Int_Handler 00000024

Symbol: ADC_Int_Handler
   Definitions
      At line 353 in file RTE\\Device\\ADuCM355\\startup_ADuCM355.s
   Uses
      At line 143 in file RTE\\Device\\ADuCM355\\startup_ADuCM355.s
      At line 297 in file RTE\\Device\\ADuCM355\\startup_ADuCM355.s

AfeAdc_Int_Handler 00000024

Symbol: AfeAdc_Int_Handler
   Definitions
      At line 363 in file RTE\\Device\\ADuCM355\\startup_ADuCM355.s
   Uses
      At line 145 in file RTE\\Device\\ADuCM355\\startup_ADuCM355.s
      At line 307 in file RTE\\Device\\ADuCM355\\startup_ADuCM355.s

AfeCMDFifo_Int_Handler 00000024

Symbol: AfeCMDFifo_Int_Handler
   Definitions
      At line 365 in file RTE\\Device\\ADuCM355\\startup_ADuCM355.s
   Uses
      At line 147 in file RTE\\Device\\ADuCM355\\startup_ADuCM355.s
      At line 309 in file RTE\\Device\\ADuCM355\\startup_ADuCM355.s

AfeCrcError_Int_Handler 00000024

Symbol: AfeCrcError_Int_Handler
   Definitions
      At line 368 in file RTE\\Device\\ADuCM355\\startup_ADuCM355.s
   Uses
      At line 150 in file RTE\\Device\\ADuCM355\\startup_ADuCM355.s
      At line 312 in file RTE\\Device\\ADuCM355\\startup_ADuCM355.s

AfeDATAFifo_Int_Handler 00000024

Symbol: AfeDATAFifo_Int_Handler
   Definitions
      At line 366 in file RTE\\Device\\ADuCM355\\startup_ADuCM355.s
   Uses
      At line 148 in file RTE\\Device\\ADuCM355\\startup_ADuCM355.s
      At line 310 in file RTE\\Device\\ADuCM355\\startup_ADuCM355.s

AfeError_Int_Handler 00000024

Symbol: AfeError_Int_Handler
   Definitions
      At line 362 in file RTE\\Device\\ADuCM355\\startup_ADuCM355.s
   Uses



ARM Macro Assembler    Page 2 Alphabetic symbol ordering
Relocatable symbols

      At line 144 in file RTE\\Device\\ADuCM355\\startup_ADuCM355.s
      At line 306 in file RTE\\Device\\ADuCM355\\startup_ADuCM355.s

AfeGeneral_Int_Handler 00000024

Symbol: AfeGeneral_Int_Handler
   Definitions
      At line 364 in file RTE\\Device\\ADuCM355\\startup_ADuCM355.s
   Uses
      At line 146 in file RTE\\Device\\ADuCM355\\startup_ADuCM355.s
      At line 308 in file RTE\\Device\\ADuCM355\\startup_ADuCM355.s

AfeGpTimer0_Int_Handler 00000024

Symbol: AfeGpTimer0_Int_Handler
   Definitions
      At line 369 in file RTE\\Device\\ADuCM355\\startup_ADuCM355.s
   Uses
      At line 151 in file RTE\\Device\\ADuCM355\\startup_ADuCM355.s
      At line 313 in file RTE\\Device\\ADuCM355\\startup_ADuCM355.s

AfeGpTimer1_Int_Handler 00000024

Symbol: AfeGpTimer1_Int_Handler
   Definitions
      At line 370 in file RTE\\Device\\ADuCM355\\startup_ADuCM355.s
   Uses
      At line 152 in file RTE\\Device\\ADuCM355\\startup_ADuCM355.s
      At line 314 in file RTE\\Device\\ADuCM355\\startup_ADuCM355.s

AfeWdt_Int_Handler 00000024

Symbol: AfeWdt_Int_Handler
   Definitions
      At line 367 in file RTE\\Device\\ADuCM355\\startup_ADuCM355.s
   Uses
      At line 149 in file RTE\\Device\\ADuCM355\\startup_ADuCM355.s
      At line 311 in file RTE\\Device\\ADuCM355\\startup_ADuCM355.s

Afe_Int3_Handler 00000024

Symbol: Afe_Int3_Handler
   Definitions
      At line 320 in file RTE\\Device\\ADuCM355\\startup_ADuCM355.s
   Uses
      At line 101 in file RTE\\Device\\ADuCM355\\startup_ADuCM355.s
      At line 264 in file RTE\\Device\\ADuCM355\\startup_ADuCM355.s

Battery_Voltage_Int_Handler 00000024

Symbol: Battery_Voltage_Int_Handler
   Definitions
      At line 323 in file RTE\\Device\\ADuCM355\\startup_ADuCM355.s
   Uses
      At line 104 in file RTE\\Device\\ADuCM355\\startup_ADuCM355.s
      At line 267 in file RTE\\Device\\ADuCM355\\startup_ADuCM355.s

BusFault_Handler 00000018




ARM Macro Assembler    Page 3 Alphabetic symbol ordering
Relocatable symbols

Symbol: BusFault_Handler
   Definitions
      At line 230 in file RTE\\Device\\ADuCM355\\startup_ADuCM355.s
   Uses
      At line 84 in file RTE\\Device\\ADuCM355\\startup_ADuCM355.s
      At line 232 in file RTE\\Device\\ADuCM355\\startup_ADuCM355.s

Crypto_Int_Handler 00000024

Symbol: Crypto_Int_Handler
   Definitions
      At line 348 in file RTE\\Device\\ADuCM355\\startup_ADuCM355.s
   Uses
      At line 135 in file RTE\\Device\\ADuCM355\\startup_ADuCM355.s
      At line 292 in file RTE\\Device\\ADuCM355\\startup_ADuCM355.s

DMA_ADC0_Int_Handler 00000024

Symbol: DMA_ADC0_Int_Handler
   Definitions
      At line 349 in file RTE\\Device\\ADuCM355\\startup_ADuCM355.s
   Uses
      At line 136 in file RTE\\Device\\ADuCM355\\startup_ADuCM355.s
      At line 293 in file RTE\\Device\\ADuCM355\\startup_ADuCM355.s

DMA_AES0_IN_Int_Handler 00000024

Symbol: DMA_AES0_IN_Int_Handler
   Definitions
      At line 345 in file RTE\\Device\\ADuCM355\\startup_ADuCM355.s
   Uses
      At line 130 in file RTE\\Device\\ADuCM355\\startup_ADuCM355.s
      At line 289 in file RTE\\Device\\ADuCM355\\startup_ADuCM355.s

DMA_AES0_OUT_Int_Handler 00000024

Symbol: DMA_AES0_OUT_Int_Handler
   Definitions
      At line 346 in file RTE\\Device\\ADuCM355\\startup_ADuCM355.s
   Uses
      At line 131 in file RTE\\Device\\ADuCM355\\startup_ADuCM355.s
      At line 290 in file RTE\\Device\\ADuCM355\\startup_ADuCM355.s

DMA_AfeCMDFifo_Int_Handler 00000024

Symbol: DMA_AfeCMDFifo_Int_Handler
   Definitions
      At line 354 in file RTE\\Device\\ADuCM355\\startup_ADuCM355.s
   Uses
      At line 153 in file RTE\\Device\\ADuCM355\\startup_ADuCM355.s
      At line 298 in file RTE\\Device\\ADuCM355\\startup_ADuCM355.s

DMA_AfeDATAFifo_Int_Handler 00000024

Symbol: DMA_AfeDATAFifo_Int_Handler
   Definitions
      At line 355 in file RTE\\Device\\ADuCM355\\startup_ADuCM355.s
   Uses
      At line 154 in file RTE\\Device\\ADuCM355\\startup_ADuCM355.s



ARM Macro Assembler    Page 4 Alphabetic symbol ordering
Relocatable symbols

      At line 299 in file RTE\\Device\\ADuCM355\\startup_ADuCM355.s

DMA_Err_Int_Handler 00000024

Symbol: DMA_Err_Int_Handler
   Definitions
      At line 335 in file RTE\\Device\\ADuCM355\\startup_ADuCM355.s
   Uses
      At line 116 in file RTE\\Device\\ADuCM355\\startup_ADuCM355.s
      At line 279 in file RTE\\Device\\ADuCM355\\startup_ADuCM355.s

DMA_FLASH0_Int_Handler 00000024

Symbol: DMA_FLASH0_Int_Handler
   Definitions
      At line 347 in file RTE\\Device\\ADuCM355\\startup_ADuCM355.s
   Uses
      At line 132 in file RTE\\Device\\ADuCM355\\startup_ADuCM355.s
      At line 291 in file RTE\\Device\\ADuCM355\\startup_ADuCM355.s

DMA_I2C0_MX_Int_Handler 00000024

Symbol: DMA_I2C0_MX_Int_Handler
   Definitions
      At line 344 in file RTE\\Device\\ADuCM355\\startup_ADuCM355.s
   Uses
      At line 129 in file RTE\\Device\\ADuCM355\\startup_ADuCM355.s
      At line 288 in file RTE\\Device\\ADuCM355\\startup_ADuCM355.s

DMA_I2C0_SRX_Int_Handler 00000024

Symbol: DMA_I2C0_SRX_Int_Handler
   Definitions
      At line 343 in file RTE\\Device\\ADuCM355\\startup_ADuCM355.s
   Uses
      At line 128 in file RTE\\Device\\ADuCM355\\startup_ADuCM355.s
      At line 287 in file RTE\\Device\\ADuCM355\\startup_ADuCM355.s

DMA_I2C0_STX_Int_Handler 00000024

Symbol: DMA_I2C0_STX_Int_Handler
   Definitions
      At line 342 in file RTE\\Device\\ADuCM355\\startup_ADuCM355.s
   Uses
      At line 127 in file RTE\\Device\\ADuCM355\\startup_ADuCM355.s
      At line 286 in file RTE\\Device\\ADuCM355\\startup_ADuCM355.s

DMA_SIP2_Int_Handler 00000024

Symbol: DMA_SIP2_Int_Handler
   Definitions
      At line 356 in file RTE\\Device\\ADuCM355\\startup_ADuCM355.s
   Uses
      At line 155 in file RTE\\Device\\ADuCM355\\startup_ADuCM355.s
      At line 300 in file RTE\\Device\\ADuCM355\\startup_ADuCM355.s

DMA_SIP3_Int_Handler 00000024

Symbol: DMA_SIP3_Int_Handler



ARM Macro Assembler    Page 5 Alphabetic symbol ordering
Relocatable symbols

   Definitions
      At line 357 in file RTE\\Device\\ADuCM355\\startup_ADuCM355.s
   Uses
      At line 156 in file RTE\\Device\\ADuCM355\\startup_ADuCM355.s
      At line 301 in file RTE\\Device\\ADuCM355\\startup_ADuCM355.s

DMA_SIP4_Int_Handler 00000024

Symbol: DMA_SIP4_Int_Handler
   Definitions
      At line 358 in file RTE\\Device\\ADuCM355\\startup_ADuCM355.s
   Uses
      At line 157 in file RTE\\Device\\ADuCM355\\startup_ADuCM355.s
      At line 302 in file RTE\\Device\\ADuCM355\\startup_ADuCM355.s

DMA_SIP5_Int_Handler 00000024

Symbol: DMA_SIP5_Int_Handler
   Definitions
      At line 359 in file RTE\\Device\\ADuCM355\\startup_ADuCM355.s
   Uses
      At line 158 in file RTE\\Device\\ADuCM355\\startup_ADuCM355.s
      At line 303 in file RTE\\Device\\ADuCM355\\startup_ADuCM355.s

DMA_SIP6_Int_Handler 00000024

Symbol: DMA_SIP6_Int_Handler
   Definitions
      At line 360 in file RTE\\Device\\ADuCM355\\startup_ADuCM355.s
   Uses
      At line 159 in file RTE\\Device\\ADuCM355\\startup_ADuCM355.s
      At line 304 in file RTE\\Device\\ADuCM355\\startup_ADuCM355.s

DMA_SIP7_Int_Handler 00000024

Symbol: DMA_SIP7_Int_Handler
   Definitions
      At line 361 in file RTE\\Device\\ADuCM355\\startup_ADuCM355.s
   Uses
      At line 160 in file RTE\\Device\\ADuCM355\\startup_ADuCM355.s
      At line 305 in file RTE\\Device\\ADuCM355\\startup_ADuCM355.s

DMA_SPI0_RX_Int_Handler 00000024

Symbol: DMA_SPI0_RX_Int_Handler
   Definitions
      At line 337 in file RTE\\Device\\ADuCM355\\startup_ADuCM355.s
   Uses
      At line 122 in file RTE\\Device\\ADuCM355\\startup_ADuCM355.s
      At line 281 in file RTE\\Device\\ADuCM355\\startup_ADuCM355.s

DMA_SPI0_TX_Int_Handler 00000024

Symbol: DMA_SPI0_TX_Int_Handler
   Definitions
      At line 336 in file RTE\\Device\\ADuCM355\\startup_ADuCM355.s
   Uses
      At line 121 in file RTE\\Device\\ADuCM355\\startup_ADuCM355.s
      At line 280 in file RTE\\Device\\ADuCM355\\startup_ADuCM355.s



ARM Macro Assembler    Page 6 Alphabetic symbol ordering
Relocatable symbols


DMA_SPI1_RX_Int_Handler 00000024

Symbol: DMA_SPI1_RX_Int_Handler
   Definitions
      At line 339 in file RTE\\Device\\ADuCM355\\startup_ADuCM355.s
   Uses
      At line 118 in file RTE\\Device\\ADuCM355\\startup_ADuCM355.s
      At line 283 in file RTE\\Device\\ADuCM355\\startup_ADuCM355.s

DMA_SPI1_TX_Int_Handler 00000024

Symbol: DMA_SPI1_TX_Int_Handler
   Definitions
      At line 338 in file RTE\\Device\\ADuCM355\\startup_ADuCM355.s
   Uses
      At line 117 in file RTE\\Device\\ADuCM355\\startup_ADuCM355.s
      At line 282 in file RTE\\Device\\ADuCM355\\startup_ADuCM355.s

DMA_UART_RX_Int_Handler 00000024

Symbol: DMA_UART_RX_Int_Handler
   Definitions
      At line 341 in file RTE\\Device\\ADuCM355\\startup_ADuCM355.s
   Uses
      At line 126 in file RTE\\Device\\ADuCM355\\startup_ADuCM355.s
      At line 285 in file RTE\\Device\\ADuCM355\\startup_ADuCM355.s

DMA_UART_TX_Int_Handler 00000024

Symbol: DMA_UART_TX_Int_Handler
   Definitions
      At line 340 in file RTE\\Device\\ADuCM355\\startup_ADuCM355.s
   Uses
      At line 125 in file RTE\\Device\\ADuCM355\\startup_ADuCM355.s
      At line 284 in file RTE\\Device\\ADuCM355\\startup_ADuCM355.s

DebugMon_Handler 0000001E

Symbol: DebugMon_Handler
   Definitions
      At line 244 in file RTE\\Device\\ADuCM355\\startup_ADuCM355.s
   Uses
      At line 91 in file RTE\\Device\\ADuCM355\\startup_ADuCM355.s
      At line 246 in file RTE\\Device\\ADuCM355\\startup_ADuCM355.s

Default_Handler 00000024

Symbol: Default_Handler
   Definitions
      At line 258 in file RTE\\Device\\ADuCM355\\startup_ADuCM355.s
   Uses
      None
Comment: Default_Handler unused
Ext_Int0_Handler 00000024

Symbol: Ext_Int0_Handler
   Definitions
      At line 317 in file RTE\\Device\\ADuCM355\\startup_ADuCM355.s



ARM Macro Assembler    Page 7 Alphabetic symbol ordering
Relocatable symbols

   Uses
      At line 98 in file RTE\\Device\\ADuCM355\\startup_ADuCM355.s
      At line 261 in file RTE\\Device\\ADuCM355\\startup_ADuCM355.s

Ext_Int1_Handler 00000024

Symbol: Ext_Int1_Handler
   Definitions
      At line 318 in file RTE\\Device\\ADuCM355\\startup_ADuCM355.s
   Uses
      At line 99 in file RTE\\Device\\ADuCM355\\startup_ADuCM355.s
      At line 262 in file RTE\\Device\\ADuCM355\\startup_ADuCM355.s

Ext_Int2_Handler 00000024

Symbol: Ext_Int2_Handler
   Definitions
      At line 319 in file RTE\\Device\\ADuCM355\\startup_ADuCM355.s
   Uses
      At line 100 in file RTE\\Device\\ADuCM355\\startup_ADuCM355.s
      At line 263 in file RTE\\Device\\ADuCM355\\startup_ADuCM355.s

Flash0_Int_Handler 00000024

Symbol: Flash0_Int_Handler
   Definitions
      At line 329 in file RTE\\Device\\ADuCM355\\startup_ADuCM355.s
   Uses
      At line 110 in file RTE\\Device\\ADuCM355\\startup_ADuCM355.s
      At line 273 in file RTE\\Device\\ADuCM355\\startup_ADuCM355.s

GPIO_A_Int_Handler 00000024

Symbol: GPIO_A_Int_Handler
   Definitions
      At line 325 in file RTE\\Device\\ADuCM355\\startup_ADuCM355.s
   Uses
      At line 106 in file RTE\\Device\\ADuCM355\\startup_ADuCM355.s
      At line 269 in file RTE\\Device\\ADuCM355\\startup_ADuCM355.s

GPIO_B_Int_Handler 00000024

Symbol: GPIO_B_Int_Handler
   Definitions
      At line 326 in file RTE\\Device\\ADuCM355\\startup_ADuCM355.s
   Uses
      At line 107 in file RTE\\Device\\ADuCM355\\startup_ADuCM355.s
      At line 270 in file RTE\\Device\\ADuCM355\\startup_ADuCM355.s

GP_Tmr0_Int_Handler 00000024

Symbol: GP_Tmr0_Int_Handler
   Definitions
      At line 327 in file RTE\\Device\\ADuCM355\\startup_ADuCM355.s
   Uses
      At line 108 in file RTE\\Device\\ADuCM355\\startup_ADuCM355.s
      At line 271 in file RTE\\Device\\ADuCM355\\startup_ADuCM355.s

GP_Tmr1_Int_Handler 00000024



ARM Macro Assembler    Page 8 Alphabetic symbol ordering
Relocatable symbols


Symbol: GP_Tmr1_Int_Handler
   Definitions
      At line 328 in file RTE\\Device\\ADuCM355\\startup_ADuCM355.s
   Uses
      At line 109 in file RTE\\Device\\ADuCM355\\startup_ADuCM355.s
      At line 272 in file RTE\\Device\\ADuCM355\\startup_ADuCM355.s

GP_Tmr2_Int_Handler 00000024

Symbol: GP_Tmr2_Int_Handler
   Definitions
      At line 350 in file RTE\\Device\\ADuCM355\\startup_ADuCM355.s
   Uses
      At line 137 in file RTE\\Device\\ADuCM355\\startup_ADuCM355.s
      At line 294 in file RTE\\Device\\ADuCM355\\startup_ADuCM355.s

HardFault_Handler 00000014

Symbol: HardFault_Handler
   Definitions
      At line 220 in file RTE\\Device\\ADuCM355\\startup_ADuCM355.s
   Uses
      At line 82 in file RTE\\Device\\ADuCM355\\startup_ADuCM355.s
      At line 222 in file RTE\\Device\\ADuCM355\\startup_ADuCM355.s

I2C0_Master_Int_Handler 00000024

Symbol: I2C0_Master_Int_Handler
   Definitions
      At line 334 in file RTE\\Device\\ADuCM355\\startup_ADuCM355.s
   Uses
      At line 115 in file RTE\\Device\\ADuCM355\\startup_ADuCM355.s
      At line 278 in file RTE\\Device\\ADuCM355\\startup_ADuCM355.s

I2C0_Slave_Int_Handler 00000024

Symbol: I2C0_Slave_Int_Handler
   Definitions
      At line 333 in file RTE\\Device\\ADuCM355\\startup_ADuCM355.s
   Uses
      At line 114 in file RTE\\Device\\ADuCM355\\startup_ADuCM355.s
      At line 277 in file RTE\\Device\\ADuCM355\\startup_ADuCM355.s

MemManage_Handler 00000016

Symbol: MemManage_Handler
   Definitions
      At line 225 in file RTE\\Device\\ADuCM355\\startup_ADuCM355.s
   Uses
      At line 83 in file RTE\\Device\\ADuCM355\\startup_ADuCM355.s
      At line 227 in file RTE\\Device\\ADuCM355\\startup_ADuCM355.s

NmiSR 00000012

Symbol: NmiSR
   Definitions
      At line 216 in file RTE\\Device\\ADuCM355\\startup_ADuCM355.s
   Uses



ARM Macro Assembler    Page 9 Alphabetic symbol ordering
Relocatable symbols

      At line 81 in file RTE\\Device\\ADuCM355\\startup_ADuCM355.s
      At line 217 in file RTE\\Device\\ADuCM355\\startup_ADuCM355.s

PENDSV_HANDLER 00000020

Symbol: PENDSV_HANDLER
   Definitions
      At line 249 in file RTE\\Device\\ADuCM355\\startup_ADuCM355.s
   Uses
      At line 93 in file RTE\\Device\\ADuCM355\\startup_ADuCM355.s
      At line 250 in file RTE\\Device\\ADuCM355\\startup_ADuCM355.s

PLL_Int_Handler 00000024

Symbol: PLL_Int_Handler
   Definitions
      At line 351 in file RTE\\Device\\ADuCM355\\startup_ADuCM355.s
   Uses
      At line 140 in file RTE\\Device\\ADuCM355\\startup_ADuCM355.s
      At line 295 in file RTE\\Device\\ADuCM355\\startup_ADuCM355.s

RNG_Int_Handler 00000024

Symbol: RNG_Int_Handler
   Definitions
      At line 352 in file RTE\\Device\\ADuCM355\\startup_ADuCM355.s
   Uses
      At line 141 in file RTE\\Device\\ADuCM355\\startup_ADuCM355.s
      At line 296 in file RTE\\Device\\ADuCM355\\startup_ADuCM355.s

RTC0_Int_Handler 00000024

Symbol: RTC0_Int_Handler
   Definitions
      At line 324 in file RTE\\Device\\ADuCM355\\startup_ADuCM355.s
   Uses
      At line 105 in file RTE\\Device\\ADuCM355\\startup_ADuCM355.s
      At line 268 in file RTE\\Device\\ADuCM355\\startup_ADuCM355.s

RTC1_Int_Handler 00000024

Symbol: RTC1_Int_Handler
   Definitions
      At line 316 in file RTE\\Device\\ADuCM355\\startup_ADuCM355.s
   Uses
      At line 97 in file RTE\\Device\\ADuCM355\\startup_ADuCM355.s
      At line 260 in file RTE\\Device\\ADuCM355\\startup_ADuCM355.s

Reset_Handler 00000000

Symbol: Reset_Handler
   Definitions
      At line 192 in file RTE\\Device\\ADuCM355\\startup_ADuCM355.s
   Uses
      At line 80 in file RTE\\Device\\ADuCM355\\startup_ADuCM355.s
      At line 193 in file RTE\\Device\\ADuCM355\\startup_ADuCM355.s

SPI0_Int_Handler 00000024




ARM Macro Assembler    Page 10 Alphabetic symbol ordering
Relocatable symbols

Symbol: SPI0_Int_Handler
   Definitions
      At line 331 in file RTE\\Device\\ADuCM355\\startup_ADuCM355.s
   Uses
      At line 112 in file RTE\\Device\\ADuCM355\\startup_ADuCM355.s
      At line 275 in file RTE\\Device\\ADuCM355\\startup_ADuCM355.s

SPI1_Int_Handler 00000024

Symbol: SPI1_Int_Handler
   Definitions
      At line 332 in file RTE\\Device\\ADuCM355\\startup_ADuCM355.s
   Uses
      At line 113 in file RTE\\Device\\ADuCM355\\startup_ADuCM355.s
      At line 276 in file RTE\\Device\\ADuCM355\\startup_ADuCM355.s

SVC_Handler 0000001C

Symbol: SVC_Handler
   Definitions
      At line 240 in file RTE\\Device\\ADuCM355\\startup_ADuCM355.s
   Uses
      At line 90 in file RTE\\Device\\ADuCM355\\startup_ADuCM355.s
      At line 241 in file RTE\\Device\\ADuCM355\\startup_ADuCM355.s

SysTick_Handler 00000022

Symbol: SysTick_Handler
   Definitions
      At line 253 in file RTE\\Device\\ADuCM355\\startup_ADuCM355.s
   Uses
      At line 94 in file RTE\\Device\\ADuCM355\\startup_ADuCM355.s
      At line 254 in file RTE\\Device\\ADuCM355\\startup_ADuCM355.s

UART_Int_Handler 00000024

Symbol: UART_Int_Handler
   Definitions
      At line 330 in file RTE\\Device\\ADuCM355\\startup_ADuCM355.s
   Uses
      At line 111 in file RTE\\Device\\ADuCM355\\startup_ADuCM355.s
      At line 274 in file RTE\\Device\\ADuCM355\\startup_ADuCM355.s

UsageFault_Handler 0000001A

Symbol: UsageFault_Handler
   Definitions
      At line 235 in file RTE\\Device\\ADuCM355\\startup_ADuCM355.s
   Uses
      At line 85 in file RTE\\Device\\ADuCM355\\startup_ADuCM355.s
      At line 237 in file RTE\\Device\\ADuCM355\\startup_ADuCM355.s

Vreg_over_Int_Handler 00000024

Symbol: Vreg_over_Int_Handler
   Definitions
      At line 322 in file RTE\\Device\\ADuCM355\\startup_ADuCM355.s
   Uses
      At line 103 in file RTE\\Device\\ADuCM355\\startup_ADuCM355.s



ARM Macro Assembler    Page 11 Alphabetic symbol ordering
Relocatable symbols

      At line 266 in file RTE\\Device\\ADuCM355\\startup_ADuCM355.s

WDog_Tmr_Int_Handler 00000024

Symbol: WDog_Tmr_Int_Handler
   Definitions
      At line 321 in file RTE\\Device\\ADuCM355\\startup_ADuCM355.s
   Uses
      At line 102 in file RTE\\Device\\ADuCM355\\startup_ADuCM355.s
      At line 265 in file RTE\\Device\\ADuCM355\\startup_ADuCM355.s

__user_initial_stackheap 00000028

Symbol: __user_initial_stackheap
   Definitions
      At line 392 in file RTE\\Device\\ADuCM355\\startup_ADuCM355.s
   Uses
      At line 390 in file RTE\\Device\\ADuCM355\\startup_ADuCM355.s
Comment: __user_initial_stackheap used once
68 symbols



ARM Macro Assembler    Page 1 Alphabetic symbol ordering
Absolute symbols

Heap_Size 00000C00

Symbol: Heap_Size
   Definitions
      At line 60 in file RTE\\Device\\ADuCM355\\startup_ADuCM355.s
   Uses
      At line 64 in file RTE\\Device\\ADuCM355\\startup_ADuCM355.s
      At line 395 in file RTE\\Device\\ADuCM355\\startup_ADuCM355.s

Stack_Size 00000400

Symbol: Stack_Size
   Definitions
      At line 49 in file RTE\\Device\\ADuCM355\\startup_ADuCM355.s
   Uses
      At line 52 in file RTE\\Device\\ADuCM355\\startup_ADuCM355.s
      At line 394 in file RTE\\Device\\ADuCM355\\startup_ADuCM355.s

__vector_table_Size 00000144

Symbol: __vector_table_Size
   Definitions
      At line 164 in file RTE\\Device\\ADuCM355\\startup_ADuCM355.s
   Uses
      At line 77 in file RTE\\Device\\ADuCM355\\startup_ADuCM355.s
Comment: __vector_table_Size used once
3 symbols



ARM Macro Assembler    Page 1 Alphabetic symbol ordering
External symbols

SystemInit 00000000

Symbol: SystemInit
   Definitions
      At line 194 in file RTE\\Device\\ADuCM355\\startup_ADuCM355.s
   Uses
      At line 207 in file RTE\\Device\\ADuCM355\\startup_ADuCM355.s
Comment: SystemInit used once
__main 00000000

Symbol: __main
   Definitions
      At line 195 in file RTE\\Device\\ADuCM355\\startup_ADuCM355.s
   Uses
      At line 209 in file RTE\\Device\\ADuCM355\\startup_ADuCM355.s
Comment: __main used once
__use_two_region_memory 00000000

Symbol: __use_two_region_memory
   Definitions
      At line 389 in file RTE\\Device\\ADuCM355\\startup_ADuCM355.s
   Uses
      None
Comment: __use_two_region_memory unused
3 symbols
423 symbols in table
